
../newkern/initrd/bin/sigtest:     file format elf32-i386


Disassembly of section .init:

08048074 <.init>:
 8048074:	e8 f3 00 00 00       	call   804816c <frame_dummy>
 8048079:	e8 92 95 00 00       	call   8051610 <__do_global_ctors_aux>

Disassembly of section .text:

08048080 <_start>:
 
## here you might want to get the argc/argv pairs somehow and then push
## them onto the stack...
 
# push envs
push $0x4020000
 8048080:	68 00 00 02 04       	push   $0x4020000
# push argv
push $0x4000000
 8048085:	68 00 00 00 04       	push   $0x4000000
# calculate argc
call strlistlen
 804808a:	e8 ad 02 00 00       	call   804833c <strlistlen>
# push argc
push %eax
 804808f:	50                   	push   %eax
# call user entry point
call main
 8048090:	e8 3b 01 00 00       	call   80481d0 <main>
 
# call the 'kill me' syscall to end
push %eax
 8048095:	50                   	push   %eax
call exit
 8048096:	e8 79 01 00 00       	call   8048214 <exit>

0804809b <lp>:
 
# loop in case we haven't yet rescheduled
lp:
hlt
 804809b:	f4                   	hlt    
jmp lp
 804809c:	eb fd                	jmp    804809b <lp>
 804809e:	90                   	nop
 804809f:	90                   	nop

080480a0 <deregister_tm_clones>:
 80480a0:	b8 6f 49 05 08       	mov    $0x805496f,%eax
 80480a5:	2d 6c 49 05 08       	sub    $0x805496c,%eax
 80480aa:	83 f8 06             	cmp    $0x6,%eax
 80480ad:	77 01                	ja     80480b0 <deregister_tm_clones+0x10>
 80480af:	c3                   	ret    
 80480b0:	b8 00 00 00 00       	mov    $0x0,%eax
 80480b5:	85 c0                	test   %eax,%eax
 80480b7:	74 f6                	je     80480af <deregister_tm_clones+0xf>
 80480b9:	55                   	push   %ebp
 80480ba:	89 e5                	mov    %esp,%ebp
 80480bc:	83 ec 18             	sub    $0x18,%esp
 80480bf:	c7 04 24 6c 49 05 08 	movl   $0x805496c,(%esp)
 80480c6:	ff d0                	call   *%eax
 80480c8:	c9                   	leave  
 80480c9:	c3                   	ret    
 80480ca:	66 90                	xchg   %ax,%ax

080480cc <register_tm_clones>:
 80480cc:	b8 6c 49 05 08       	mov    $0x805496c,%eax
 80480d1:	2d 6c 49 05 08       	sub    $0x805496c,%eax
 80480d6:	c1 f8 02             	sar    $0x2,%eax
 80480d9:	89 c2                	mov    %eax,%edx
 80480db:	c1 ea 1f             	shr    $0x1f,%edx
 80480de:	01 d0                	add    %edx,%eax
 80480e0:	d1 f8                	sar    %eax
 80480e2:	75 01                	jne    80480e5 <register_tm_clones+0x19>
 80480e4:	c3                   	ret    
 80480e5:	ba 00 00 00 00       	mov    $0x0,%edx
 80480ea:	85 d2                	test   %edx,%edx
 80480ec:	74 f6                	je     80480e4 <register_tm_clones+0x18>
 80480ee:	55                   	push   %ebp
 80480ef:	89 e5                	mov    %esp,%ebp
 80480f1:	83 ec 18             	sub    $0x18,%esp
 80480f4:	89 44 24 04          	mov    %eax,0x4(%esp)
 80480f8:	c7 04 24 6c 49 05 08 	movl   $0x805496c,(%esp)
 80480ff:	ff d2                	call   *%edx
 8048101:	c9                   	leave  
 8048102:	c3                   	ret    
 8048103:	90                   	nop

08048104 <__do_global_dtors_aux>:
 8048104:	80 3d 80 49 05 08 00 	cmpb   $0x0,0x8054980
 804810b:	75 5b                	jne    8048168 <__do_global_dtors_aux+0x64>
 804810d:	55                   	push   %ebp
 804810e:	89 e5                	mov    %esp,%ebp
 8048110:	53                   	push   %ebx
 8048111:	83 ec 14             	sub    $0x14,%esp
 8048114:	a1 84 49 05 08       	mov    0x8054984,%eax
 8048119:	bb 0c 40 05 08       	mov    $0x805400c,%ebx
 804811e:	81 eb 08 40 05 08    	sub    $0x8054008,%ebx
 8048124:	c1 fb 02             	sar    $0x2,%ebx
 8048127:	4b                   	dec    %ebx
 8048128:	39 d8                	cmp    %ebx,%eax
 804812a:	73 16                	jae    8048142 <__do_global_dtors_aux+0x3e>
 804812c:	40                   	inc    %eax
 804812d:	a3 84 49 05 08       	mov    %eax,0x8054984
 8048132:	ff 14 85 08 40 05 08 	call   *0x8054008(,%eax,4)
 8048139:	a1 84 49 05 08       	mov    0x8054984,%eax
 804813e:	39 d8                	cmp    %ebx,%eax
 8048140:	72 ea                	jb     804812c <__do_global_dtors_aux+0x28>
 8048142:	e8 59 ff ff ff       	call   80480a0 <deregister_tm_clones>
 8048147:	b8 00 00 00 00       	mov    $0x0,%eax
 804814c:	85 c0                	test   %eax,%eax
 804814e:	74 0c                	je     804815c <__do_global_dtors_aux+0x58>
 8048150:	c7 04 24 78 1b 05 08 	movl   $0x8051b78,(%esp)
 8048157:	e8 a4 7e fb f7       	call   0 <_start-0x8048080>
 804815c:	c6 05 80 49 05 08 01 	movb   $0x1,0x8054980
 8048163:	83 c4 14             	add    $0x14,%esp
 8048166:	5b                   	pop    %ebx
 8048167:	5d                   	pop    %ebp
 8048168:	c3                   	ret    
 8048169:	8d 76 00             	lea    0x0(%esi),%esi

0804816c <frame_dummy>:
 804816c:	55                   	push   %ebp
 804816d:	89 e5                	mov    %esp,%ebp
 804816f:	83 ec 18             	sub    $0x18,%esp
 8048172:	b8 00 00 00 00       	mov    $0x0,%eax
 8048177:	85 c0                	test   %eax,%eax
 8048179:	74 14                	je     804818f <frame_dummy+0x23>
 804817b:	c7 44 24 04 88 49 05 	movl   $0x8054988,0x4(%esp)
 8048182:	08 
 8048183:	c7 04 24 78 1b 05 08 	movl   $0x8051b78,(%esp)
 804818a:	e8 71 7e fb f7       	call   0 <_start-0x8048080>
 804818f:	a1 10 40 05 08       	mov    0x8054010,%eax
 8048194:	85 c0                	test   %eax,%eax
 8048196:	74 12                	je     80481aa <frame_dummy+0x3e>
 8048198:	b8 00 00 00 00       	mov    $0x0,%eax
 804819d:	85 c0                	test   %eax,%eax
 804819f:	74 09                	je     80481aa <frame_dummy+0x3e>
 80481a1:	c7 04 24 10 40 05 08 	movl   $0x8054010,(%esp)
 80481a8:	ff d0                	call   *%eax
 80481aa:	c9                   	leave  
 80481ab:	e9 1c ff ff ff       	jmp    80480cc <register_tm_clones>

080481b0 <our_handler>:
 80481b0:	55                   	push   %ebp
 80481b1:	89 e5                	mov    %esp,%ebp
 80481b3:	83 ec 18             	sub    $0x18,%esp
 80481b6:	8b 45 08             	mov    0x8(%ebp),%eax
 80481b9:	89 44 24 04          	mov    %eax,0x4(%esp)
 80481bd:	c7 04 24 40 16 05 08 	movl   $0x8051640,(%esp)
 80481c4:	e8 ab 00 00 00       	call   8048274 <printf>
 80481c9:	e8 3e 07 00 00       	call   804890c <exitsig>
 80481ce:	c9                   	leave  
 80481cf:	c3                   	ret    

080481d0 <main>:
 80481d0:	55                   	push   %ebp
 80481d1:	89 e5                	mov    %esp,%ebp
 80481d3:	83 e4 f0             	and    $0xfffffff0,%esp
 80481d6:	83 ec 20             	sub    $0x20,%esp
 80481d9:	c7 04 24 5b 16 05 08 	movl   $0x805165b,(%esp)
 80481e0:	e8 3b 01 00 00       	call   8048320 <puts>
 80481e5:	c7 44 24 04 b0 81 04 	movl   $0x80481b0,0x4(%esp)
 80481ec:	08 
 80481ed:	c7 04 24 1e 00 00 00 	movl   $0x1e,(%esp)
 80481f4:	e8 bf 06 00 00       	call   80488b8 <signal>
 80481f9:	c7 04 24 71 16 05 08 	movl   $0x8051671,(%esp)
 8048200:	e8 1b 01 00 00       	call   8048320 <puts>
 8048205:	8d 44 24 1c          	lea    0x1c(%esp),%eax
 8048209:	89 04 24             	mov    %eax,(%esp)
 804820c:	e8 87 09 00 00       	call   8048b98 <wait>
 8048211:	eb f2                	jmp    8048205 <main+0x35>
 8048213:	90                   	nop

08048214 <exit>:
 */

void
_DEFUN (exit, (code),
	int code)
{
 8048214:	53                   	push   %ebx
 8048215:	83 ec 18             	sub    $0x18,%esp
 8048218:	8b 5c 24 20          	mov    0x20(%esp),%ebx
#ifdef _LITE_EXIT
  /* Refer to comments in __atexit.c for more details of lite exit.  */
  void __call_exitprocs _PARAMS ((int, _PTR)) __attribute__((weak));
  if (__call_exitprocs)
#endif
    __call_exitprocs (code, NULL);
 804821c:	c7 44 24 04 00 00 00 	movl   $0x0,0x4(%esp)
 8048223:	00 
 8048224:	89 1c 24             	mov    %ebx,(%esp)
 8048227:	e8 b4 2c 00 00       	call   804aee0 <__call_exitprocs>

  if (_GLOBAL_REENT->__cleanup)
 804822c:	8b 15 8c 16 05 08    	mov    0x805168c,%edx
 8048232:	8b 42 3c             	mov    0x3c(%edx),%eax
 8048235:	85 c0                	test   %eax,%eax
 8048237:	74 05                	je     804823e <exit+0x2a>
    (*_GLOBAL_REENT->__cleanup) (_GLOBAL_REENT);
 8048239:	89 14 24             	mov    %edx,(%esp)
 804823c:	ff d0                	call   *%eax
  _exit (code);
 804823e:	89 1c 24             	mov    %ebx,(%esp)
 8048241:	e8 3a 02 00 00       	call   8048480 <_exit>
 8048246:	90                   	nop
 8048247:	90                   	nop

08048248 <_printf_r>:

int
_DEFUN(_printf_r, (ptr, fmt),
       struct _reent *ptr _AND
       const char *__restrict fmt _DOTS)
{
 8048248:	83 ec 1c             	sub    $0x1c,%esp
 804824b:	8b 44 24 20          	mov    0x20(%esp),%eax
  int ret;
  va_list ap;

  _REENT_SMALL_CHECK_INIT (ptr);
  va_start (ap, fmt);
 804824f:	8d 54 24 28          	lea    0x28(%esp),%edx
  ret = _vfprintf_r (ptr, _stdout_r (ptr), fmt, ap);
 8048253:	89 54 24 0c          	mov    %edx,0xc(%esp)
 8048257:	8b 54 24 24          	mov    0x24(%esp),%edx
 804825b:	89 54 24 08          	mov    %edx,0x8(%esp)
 804825f:	8b 50 08             	mov    0x8(%eax),%edx
 8048262:	89 54 24 04          	mov    %edx,0x4(%esp)
 8048266:	89 04 24             	mov    %eax,(%esp)
 8048269:	e8 fe 09 00 00       	call   8048c6c <_vfprintf_r>
  va_end (ap);
  return ret;
}
 804826e:	83 c4 1c             	add    $0x1c,%esp
 8048271:	c3                   	ret    
 8048272:	66 90                	xchg   %ax,%ax

08048274 <printf>:
#ifndef _REENT_ONLY

int
_DEFUN(printf, (fmt),
       const char *__restrict fmt _DOTS)
{
 8048274:	83 ec 1c             	sub    $0x1c,%esp
  int ret;
  va_list ap;
  struct _reent *ptr = _REENT;
 8048277:	a1 40 40 05 08       	mov    0x8054040,%eax

  _REENT_SMALL_CHECK_INIT (ptr);
  va_start (ap, fmt);
 804827c:	8d 54 24 24          	lea    0x24(%esp),%edx
  ret = _vfprintf_r (ptr, _stdout_r (ptr), fmt, ap);
 8048280:	89 54 24 0c          	mov    %edx,0xc(%esp)
 8048284:	8b 54 24 20          	mov    0x20(%esp),%edx
 8048288:	89 54 24 08          	mov    %edx,0x8(%esp)
 804828c:	8b 50 08             	mov    0x8(%eax),%edx
 804828f:	89 54 24 04          	mov    %edx,0x4(%esp)
 8048293:	89 04 24             	mov    %eax,(%esp)
 8048296:	e8 d1 09 00 00       	call   8048c6c <_vfprintf_r>
  va_end (ap);
  return ret;
}
 804829b:	83 c4 1c             	add    $0x1c,%esp
 804829e:	c3                   	ret    
 804829f:	90                   	nop

080482a0 <_puts_r>:

int
_DEFUN(_puts_r, (ptr, s),
       struct _reent *ptr _AND
       _CONST char * s)
{
 80482a0:	56                   	push   %esi
 80482a1:	53                   	push   %ebx
 80482a2:	83 ec 34             	sub    $0x34,%esp
 80482a5:	8b 5c 24 40          	mov    0x40(%esp),%ebx
 80482a9:	8b 74 24 44          	mov    0x44(%esp),%esi
#ifdef _FVWRITE_IN_STREAMIO
  int result;
  size_t c = strlen (s);
 80482ad:	89 34 24             	mov    %esi,(%esp)
 80482b0:	e8 3b 09 00 00       	call   8048bf0 <strlen>
  struct __suio uio;
  struct __siov iov[2];
  FILE *fp;

  iov[0].iov_base = s;
 80482b5:	89 74 24 20          	mov    %esi,0x20(%esp)
  iov[0].iov_len = c;
 80482b9:	89 44 24 24          	mov    %eax,0x24(%esp)
  iov[1].iov_base = "\n";
 80482bd:	c7 44 24 28 92 16 05 	movl   $0x8051692,0x28(%esp)
 80482c4:	08 
  iov[1].iov_len = 1;
 80482c5:	c7 44 24 2c 01 00 00 	movl   $0x1,0x2c(%esp)
 80482cc:	00 
  uio.uio_resid = c + 1;
 80482cd:	40                   	inc    %eax
 80482ce:	89 44 24 1c          	mov    %eax,0x1c(%esp)
  uio.uio_iov = &iov[0];
 80482d2:	8d 44 24 20          	lea    0x20(%esp),%eax
 80482d6:	89 44 24 14          	mov    %eax,0x14(%esp)
  uio.uio_iovcnt = 2;
 80482da:	c7 44 24 18 02 00 00 	movl   $0x2,0x18(%esp)
 80482e1:	00 

  _REENT_SMALL_CHECK_INIT (ptr);
  fp = _stdout_r (ptr);
 80482e2:	8b 43 08             	mov    0x8(%ebx),%eax
  _newlib_flockfile_start (fp);
  ORIENT (fp, -1);
 80482e5:	8b 50 0c             	mov    0xc(%eax),%edx
 80482e8:	f6 c6 20             	test   $0x20,%dh
 80482eb:	75 0e                	jne    80482fb <_puts_r+0x5b>
 80482ed:	80 ce 20             	or     $0x20,%dh
 80482f0:	66 89 50 0c          	mov    %dx,0xc(%eax)
 80482f4:	81 60 64 ff df ff ff 	andl   $0xffffdfff,0x64(%eax)
  result = (__sfvwrite_r (ptr, fp, &uio) ? EOF : '\n');
 80482fb:	8d 54 24 14          	lea    0x14(%esp),%edx
 80482ff:	89 54 24 08          	mov    %edx,0x8(%esp)
 8048303:	89 44 24 04          	mov    %eax,0x4(%esp)
 8048307:	89 1c 24             	mov    %ebx,(%esp)
 804830a:	e8 49 4a 00 00       	call   804cd58 <__sfvwrite_r>
 804830f:	83 f8 01             	cmp    $0x1,%eax
 8048312:	19 c0                	sbb    %eax,%eax
 8048314:	83 e0 0b             	and    $0xb,%eax
 8048317:	48                   	dec    %eax

err:
  _newlib_flockfile_end (fp);
  return result;
#endif
}
 8048318:	83 c4 34             	add    $0x34,%esp
 804831b:	5b                   	pop    %ebx
 804831c:	5e                   	pop    %esi
 804831d:	c3                   	ret    
 804831e:	66 90                	xchg   %ax,%ax

08048320 <puts>:
#ifndef _REENT_ONLY

int
_DEFUN(puts, (s),
       char _CONST * s)
{
 8048320:	83 ec 1c             	sub    $0x1c,%esp
  return _puts_r (_REENT, s);
 8048323:	8b 44 24 20          	mov    0x20(%esp),%eax
 8048327:	89 44 24 04          	mov    %eax,0x4(%esp)
 804832b:	a1 40 40 05 08       	mov    0x8054040,%eax
 8048330:	89 04 24             	mov    %eax,(%esp)
 8048333:	e8 68 ff ff ff       	call   80482a0 <_puts_r>
}
 8048338:	83 c4 1c             	add    $0x1c,%esp
 804833b:	c3                   	ret    

0804833c <strlistlen>:
 */

char **environ = (char **) 0x4020000; 

int strlistlen(char **list)
{
 804833c:	8b 4c 24 04          	mov    0x4(%esp),%ecx
	int len = 0;
 8048340:	31 c0                	xor    %eax,%eax
	while (list[len++]);
 8048342:	eb 02                	jmp    8048346 <strlistlen+0xa>
 8048344:	89 d0                	mov    %edx,%eax
 8048346:	8d 50 01             	lea    0x1(%eax),%edx
 8048349:	83 3c 81 00          	cmpl   $0x0,(%ecx,%eax,4)
 804834d:	75 f5                	jne    8048344 <strlistlen+0x8>
	return len-1;
}
 804834f:	c3                   	ret    

08048350 <_execve>:
int
_DEFUN (_execve, (name, argv, env),
        char  *name  _AND
        char **argv  _AND
        char **env)
{
 8048350:	55                   	push   %ebp
 8048351:	57                   	push   %edi
 8048352:	56                   	push   %esi
 8048353:	53                   	push   %ebx
 8048354:	83 ec 5c             	sub    $0x5c,%esp
 8048357:	8b 6c 24 74          	mov    0x74(%esp),%ebp
 804835b:	8b 7c 24 78          	mov    0x78(%esp),%edi

char **environ = (char **) 0x4020000; 

int strlistlen(char **list)
{
	int len = 0;
 804835f:	31 db                	xor    %ebx,%ebx
 8048361:	8d 76 00             	lea    0x0(%esi),%esi
	while (list[len++]);
 8048364:	8b 44 9d 00          	mov    0x0(%ebp,%ebx,4),%eax
 8048368:	43                   	inc    %ebx
 8048369:	85 c0                	test   %eax,%eax
 804836b:	75 f7                	jne    8048364 <_execve+0x14>

char **environ = (char **) 0x4020000; 

int strlistlen(char **list)
{
	int len = 0;
 804836d:	c7 44 24 24 00 00 00 	movl   $0x0,0x24(%esp)
 8048374:	00 
 8048375:	8d 76 00             	lea    0x0(%esi),%esi
	while (list[len++]);
 8048378:	8b 14 87             	mov    (%edi,%eax,4),%edx
 804837b:	40                   	inc    %eax
 804837c:	85 d2                	test   %edx,%edx
 804837e:	75 f8                	jne    8048378 <_execve+0x28>
 8048380:	89 44 24 24          	mov    %eax,0x24(%esp)
        char **env)
{
   int c;
   uint32_t argvc = (uint32_t) (strlistlen(argv) + 1);
   uint32_t envc = (uint32_t) (strlistlen(env) + 1);
   uintptr_t *argvs = malloc(argvc * sizeof(char *));
 8048384:	8d 14 9d 00 00 00 00 	lea    0x0(,%ebx,4),%edx
 804838b:	89 14 24             	mov    %edx,(%esp)
 804838e:	89 54 24 18          	mov    %edx,0x18(%esp)
 8048392:	e8 ed 50 00 00       	call   804d484 <malloc>
 8048397:	89 c6                	mov    %eax,%esi
   uintptr_t *envs = malloc(envc * sizeof(char *));
 8048399:	8b 4c 24 24          	mov    0x24(%esp),%ecx
 804839d:	c1 e1 02             	shl    $0x2,%ecx
 80483a0:	89 0c 24             	mov    %ecx,(%esp)
 80483a3:	89 4c 24 1c          	mov    %ecx,0x1c(%esp)
 80483a7:	e8 d8 50 00 00       	call   804d484 <malloc>
 80483ac:	89 44 24 28          	mov    %eax,0x28(%esp)
   uint32_t a[] = {(uint32_t) name, (uint32_t) argv, (uint32_t) env, (uint32_t) argvs};
 80483b0:	8b 44 24 70          	mov    0x70(%esp),%eax
 80483b4:	89 44 24 30          	mov    %eax,0x30(%esp)
 80483b8:	89 6c 24 34          	mov    %ebp,0x34(%esp)
 80483bc:	89 7c 24 38          	mov    %edi,0x38(%esp)
 80483c0:	89 74 24 3c          	mov    %esi,0x3c(%esp)
   uint32_t b[] = {(uint32_t) 1+strlen(name), argvc * sizeof(char *), envc * sizeof(char *) , (uint32_t) envs};
 80483c4:	89 04 24             	mov    %eax,(%esp)
 80483c7:	e8 24 08 00 00       	call   8048bf0 <strlen>
 80483cc:	40                   	inc    %eax
 80483cd:	89 44 24 40          	mov    %eax,0x40(%esp)
 80483d1:	8b 54 24 18          	mov    0x18(%esp),%edx
 80483d5:	89 54 24 44          	mov    %edx,0x44(%esp)
 80483d9:	8b 4c 24 1c          	mov    0x1c(%esp),%ecx
 80483dd:	89 4c 24 48          	mov    %ecx,0x48(%esp)
 80483e1:	8b 44 24 28          	mov    0x28(%esp),%eax
 80483e5:	89 44 24 4c          	mov    %eax,0x4c(%esp)
   for (c = 0; c < (argvc - 1); c++)
 80483e9:	83 fb 01             	cmp    $0x1,%ebx
 80483ec:	74 34                	je     8048422 <_execve+0xd2>
}

int strlistlen(char **list);

int
_DEFUN (_execve, (name, argv, env),
 80483ee:	4b                   	dec    %ebx
 80483ef:	89 5c 24 20          	mov    %ebx,0x20(%esp)
   uint32_t envc = (uint32_t) (strlistlen(env) + 1);
   uintptr_t *argvs = malloc(argvc * sizeof(char *));
   uintptr_t *envs = malloc(envc * sizeof(char *));
   uint32_t a[] = {(uint32_t) name, (uint32_t) argv, (uint32_t) env, (uint32_t) argvs};
   uint32_t b[] = {(uint32_t) 1+strlen(name), argvc * sizeof(char *), envc * sizeof(char *) , (uint32_t) envs};
   for (c = 0; c < (argvc - 1); c++)
 80483f3:	31 c0                	xor    %eax,%eax
 80483f5:	31 db                	xor    %ebx,%ebx
 80483f7:	89 7c 24 2c          	mov    %edi,0x2c(%esp)
 80483fb:	89 ef                	mov    %ebp,%edi
 80483fd:	8d 76 00             	lea    0x0(%esi),%esi
	argvs[c] = strlen(argv[c]) + 1;
 8048400:	c1 e0 02             	shl    $0x2,%eax
 8048403:	8d 2c 06             	lea    (%esi,%eax,1),%ebp
 8048406:	8b 04 07             	mov    (%edi,%eax,1),%eax
 8048409:	89 04 24             	mov    %eax,(%esp)
 804840c:	e8 df 07 00 00       	call   8048bf0 <strlen>
 8048411:	40                   	inc    %eax
 8048412:	89 45 00             	mov    %eax,0x0(%ebp)
   uint32_t envc = (uint32_t) (strlistlen(env) + 1);
   uintptr_t *argvs = malloc(argvc * sizeof(char *));
   uintptr_t *envs = malloc(envc * sizeof(char *));
   uint32_t a[] = {(uint32_t) name, (uint32_t) argv, (uint32_t) env, (uint32_t) argvs};
   uint32_t b[] = {(uint32_t) 1+strlen(name), argvc * sizeof(char *), envc * sizeof(char *) , (uint32_t) envs};
   for (c = 0; c < (argvc - 1); c++)
 8048415:	43                   	inc    %ebx
 8048416:	89 d8                	mov    %ebx,%eax
 8048418:	3b 5c 24 20          	cmp    0x20(%esp),%ebx
 804841c:	75 e2                	jne    8048400 <_execve+0xb0>
 804841e:	8b 7c 24 2c          	mov    0x2c(%esp),%edi
	argvs[c] = strlen(argv[c]) + 1;
   for (c = 0; c < (envc - 1); c++)
 8048422:	83 7c 24 24 01       	cmpl   $0x1,0x24(%esp)
 8048427:	74 31                	je     804845a <_execve+0x10a>
}

int strlistlen(char **list);

int
_DEFUN (_execve, (name, argv, env),
 8048429:	8b 74 24 24          	mov    0x24(%esp),%esi
 804842d:	4e                   	dec    %esi
   uintptr_t *envs = malloc(envc * sizeof(char *));
   uint32_t a[] = {(uint32_t) name, (uint32_t) argv, (uint32_t) env, (uint32_t) argvs};
   uint32_t b[] = {(uint32_t) 1+strlen(name), argvc * sizeof(char *), envc * sizeof(char *) , (uint32_t) envs};
   for (c = 0; c < (argvc - 1); c++)
	argvs[c] = strlen(argv[c]) + 1;
   for (c = 0; c < (envc - 1); c++)
 804842e:	31 c0                	xor    %eax,%eax
}

int strlistlen(char **list);

int
_DEFUN (_execve, (name, argv, env),
 8048430:	31 db                	xor    %ebx,%ebx
 8048432:	8b 6c 24 28          	mov    0x28(%esp),%ebp
 8048436:	89 74 24 20          	mov    %esi,0x20(%esp)
 804843a:	89 fe                	mov    %edi,%esi
   uint32_t a[] = {(uint32_t) name, (uint32_t) argv, (uint32_t) env, (uint32_t) argvs};
   uint32_t b[] = {(uint32_t) 1+strlen(name), argvc * sizeof(char *), envc * sizeof(char *) , (uint32_t) envs};
   for (c = 0; c < (argvc - 1); c++)
	argvs[c] = strlen(argv[c]) + 1;
   for (c = 0; c < (envc - 1); c++)
	envs[c] = strlen(env[c]) + 1;
 804843c:	c1 e0 02             	shl    $0x2,%eax
 804843f:	8d 7c 05 00          	lea    0x0(%ebp,%eax,1),%edi
 8048443:	8b 04 06             	mov    (%esi,%eax,1),%eax
 8048446:	89 04 24             	mov    %eax,(%esp)
 8048449:	e8 a2 07 00 00       	call   8048bf0 <strlen>
 804844e:	40                   	inc    %eax
 804844f:	89 07                	mov    %eax,(%edi)
   uintptr_t *envs = malloc(envc * sizeof(char *));
   uint32_t a[] = {(uint32_t) name, (uint32_t) argv, (uint32_t) env, (uint32_t) argvs};
   uint32_t b[] = {(uint32_t) 1+strlen(name), argvc * sizeof(char *), envc * sizeof(char *) , (uint32_t) envs};
   for (c = 0; c < (argvc - 1); c++)
	argvs[c] = strlen(argv[c]) + 1;
   for (c = 0; c < (envc - 1); c++)
 8048451:	43                   	inc    %ebx
 8048452:	89 d8                	mov    %ebx,%eax
 8048454:	3b 5c 24 20          	cmp    0x20(%esp),%ebx
 8048458:	75 e2                	jne    804843c <_execve+0xec>
	envs[c] = strlen(env[c]) + 1;

   return (int) nk_do_syscall(SYS_EXECVE, a, b); 
 804845a:	8d 44 24 40          	lea    0x40(%esp),%eax
 804845e:	89 44 24 08          	mov    %eax,0x8(%esp)
 8048462:	8d 44 24 30          	lea    0x30(%esp),%eax
 8048466:	89 44 24 04          	mov    %eax,0x4(%esp)
 804846a:	c7 04 24 23 00 00 00 	movl   $0x23,(%esp)
 8048471:	e8 22 66 00 00       	call   804ea98 <nk_do_syscall>
}
 8048476:	83 c4 5c             	add    $0x5c,%esp
 8048479:	5b                   	pop    %ebx
 804847a:	5e                   	pop    %esi
 804847b:	5f                   	pop    %edi
 804847c:	5d                   	pop    %ebp
 804847d:	c3                   	ret    
 804847e:	66 90                	xchg   %ax,%ax

08048480 <_exit>:

_VOID
_DEFUN (_exit, (rc),
	int rc)
{
 8048480:	57                   	push   %edi
 8048481:	83 ec 38             	sub    $0x38,%esp
   int a[] = {(uint32_t) rc,0,0,0};
 8048484:	8b 44 24 40          	mov    0x40(%esp),%eax
 8048488:	89 44 24 10          	mov    %eax,0x10(%esp)
 804848c:	c7 44 24 14 00 00 00 	movl   $0x0,0x14(%esp)
 8048493:	00 
 8048494:	c7 44 24 18 00 00 00 	movl   $0x0,0x18(%esp)
 804849b:	00 
 804849c:	c7 44 24 1c 00 00 00 	movl   $0x0,0x1c(%esp)
 80484a3:	00 
   int b[] = {0,0,0,0};
 80484a4:	8d 7c 24 20          	lea    0x20(%esp),%edi
 80484a8:	b9 10 00 00 00       	mov    $0x10,%ecx
 80484ad:	31 c0                	xor    %eax,%eax
 80484af:	f3 aa                	rep stos %al,%es:(%edi)
   nk_do_syscall(SYS_EXIT, a, b); 
 80484b1:	8d 44 24 20          	lea    0x20(%esp),%eax
 80484b5:	89 44 24 08          	mov    %eax,0x8(%esp)
 80484b9:	8d 44 24 10          	lea    0x10(%esp),%eax
 80484bd:	89 44 24 04          	mov    %eax,0x4(%esp)
 80484c1:	c7 04 24 06 00 00 00 	movl   $0x6,(%esp)
 80484c8:	e8 cb 65 00 00       	call   804ea98 <nk_do_syscall>
}
 80484cd:	83 c4 38             	add    $0x38,%esp
 80484d0:	5f                   	pop    %edi
 80484d1:	c3                   	ret    
 80484d2:	66 90                	xchg   %ax,%ax

080484d4 <fork>:

int
_DEFUN (fork, (),
        _NOARGS)
{
 80484d4:	57                   	push   %edi
 80484d5:	83 ec 38             	sub    $0x38,%esp
   int a[] = {0,0,0,0};
 80484d8:	8d 7c 24 10          	lea    0x10(%esp),%edi
 80484dc:	31 c0                	xor    %eax,%eax
 80484de:	b9 10 00 00 00       	mov    $0x10,%ecx
 80484e3:	f3 aa                	rep stos %al,%es:(%edi)
   int b[] = {0,0,0,0};
 80484e5:	8d 7c 24 20          	lea    0x20(%esp),%edi
 80484e9:	b1 10                	mov    $0x10,%cl
 80484eb:	f3 aa                	rep stos %al,%es:(%edi)
   return (int)nk_do_syscall(SYS_FORK, a, b); 
 80484ed:	8d 44 24 20          	lea    0x20(%esp),%eax
 80484f1:	89 44 24 08          	mov    %eax,0x8(%esp)
 80484f5:	8d 44 24 10          	lea    0x10(%esp),%eax
 80484f9:	89 44 24 04          	mov    %eax,0x4(%esp)
 80484fd:	c7 04 24 01 00 00 00 	movl   $0x1,(%esp)
 8048504:	e8 8f 65 00 00       	call   804ea98 <nk_do_syscall>
}
 8048509:	83 c4 38             	add    $0x38,%esp
 804850c:	5f                   	pop    %edi
 804850d:	c3                   	ret    
 804850e:	66 90                	xchg   %ax,%ax

08048510 <vfork>:

int
_DEFUN (vfork, (),
        _NOARGS)
{
 8048510:	57                   	push   %edi
 8048511:	83 ec 38             	sub    $0x38,%esp
   int a[] = {0,0,0,0};
 8048514:	8d 7c 24 10          	lea    0x10(%esp),%edi
 8048518:	31 c0                	xor    %eax,%eax
 804851a:	b9 10 00 00 00       	mov    $0x10,%ecx
 804851f:	f3 aa                	rep stos %al,%es:(%edi)
   int b[] = {0,0,0,0};
 8048521:	8d 7c 24 20          	lea    0x20(%esp),%edi
 8048525:	b1 10                	mov    $0x10,%cl
 8048527:	f3 aa                	rep stos %al,%es:(%edi)
   return (int)nk_do_syscall(SYS_FORK, a, b); 
 8048529:	8d 44 24 20          	lea    0x20(%esp),%eax
 804852d:	89 44 24 08          	mov    %eax,0x8(%esp)
 8048531:	8d 44 24 10          	lea    0x10(%esp),%eax
 8048535:	89 44 24 04          	mov    %eax,0x4(%esp)
 8048539:	c7 04 24 01 00 00 00 	movl   $0x1,(%esp)
 8048540:	e8 53 65 00 00       	call   804ea98 <nk_do_syscall>
}
 8048545:	83 c4 38             	add    $0x38,%esp
 8048548:	5f                   	pop    %edi
 8048549:	c3                   	ret    
 804854a:	66 90                	xchg   %ax,%ax

0804854c <getpid>:


int
_DEFUN (getpid, (),
        _NOARGS)
{
 804854c:	57                   	push   %edi
 804854d:	83 ec 38             	sub    $0x38,%esp
   int a[] = {0,0,0,0};
 8048550:	8d 7c 24 10          	lea    0x10(%esp),%edi
 8048554:	31 c0                	xor    %eax,%eax
 8048556:	b9 10 00 00 00       	mov    $0x10,%ecx
 804855b:	f3 aa                	rep stos %al,%es:(%edi)
   int b[] = {0,0,0,0};
 804855d:	8d 7c 24 20          	lea    0x20(%esp),%edi
 8048561:	b1 10                	mov    $0x10,%cl
 8048563:	f3 aa                	rep stos %al,%es:(%edi)
   return (int) nk_do_syscall(SYS_GETPID, a, b); 
 8048565:	8d 44 24 20          	lea    0x20(%esp),%eax
 8048569:	89 44 24 08          	mov    %eax,0x8(%esp)
 804856d:	8d 44 24 10          	lea    0x10(%esp),%eax
 8048571:	89 44 24 04          	mov    %eax,0x4(%esp)
 8048575:	c7 04 24 03 00 00 00 	movl   $0x3,(%esp)
 804857c:	e8 17 65 00 00       	call   804ea98 <nk_do_syscall>
}
 8048581:	83 c4 38             	add    $0x38,%esp
 8048584:	5f                   	pop    %edi
 8048585:	c3                   	ret    
 8048586:	66 90                	xchg   %ax,%ax

08048588 <getppid>:


int
_DEFUN (getppid, (),
        _NOARGS)
{
 8048588:	57                   	push   %edi
 8048589:	83 ec 38             	sub    $0x38,%esp
   int a[] = {0,0,0,0};
 804858c:	8d 7c 24 10          	lea    0x10(%esp),%edi
 8048590:	31 c0                	xor    %eax,%eax
 8048592:	b9 10 00 00 00       	mov    $0x10,%ecx
 8048597:	f3 aa                	rep stos %al,%es:(%edi)
   int b[] = {0,0,0,0};
 8048599:	8d 7c 24 20          	lea    0x20(%esp),%edi
 804859d:	b1 10                	mov    $0x10,%cl
 804859f:	f3 aa                	rep stos %al,%es:(%edi)
   return (int) nk_do_syscall(SYS_GETPPID, a, b); 
 80485a1:	8d 44 24 20          	lea    0x20(%esp),%eax
 80485a5:	89 44 24 08          	mov    %eax,0x8(%esp)
 80485a9:	8d 44 24 10          	lea    0x10(%esp),%eax
 80485ad:	89 44 24 04          	mov    %eax,0x4(%esp)
 80485b1:	c7 04 24 25 00 00 00 	movl   $0x25,(%esp)
 80485b8:	e8 db 64 00 00       	call   804ea98 <nk_do_syscall>
}
 80485bd:	83 c4 38             	add    $0x38,%esp
 80485c0:	5f                   	pop    %edi
 80485c1:	c3                   	ret    
 80485c2:	66 90                	xchg   %ax,%ax

080485c4 <getuid>:


uid_t
_DEFUN (getuid, (),
        _NOARGS)
{
 80485c4:	57                   	push   %edi
 80485c5:	83 ec 38             	sub    $0x38,%esp
   int a[] = {0,0,0,0};
 80485c8:	8d 7c 24 10          	lea    0x10(%esp),%edi
 80485cc:	31 c0                	xor    %eax,%eax
 80485ce:	b9 10 00 00 00       	mov    $0x10,%ecx
 80485d3:	f3 aa                	rep stos %al,%es:(%edi)
   int b[] = {0,0,0,0};
 80485d5:	8d 7c 24 20          	lea    0x20(%esp),%edi
 80485d9:	b1 10                	mov    $0x10,%cl
 80485db:	f3 aa                	rep stos %al,%es:(%edi)
   return (int) nk_do_syscall(SYS_GETUID, a, b); 
 80485dd:	8d 44 24 20          	lea    0x20(%esp),%eax
 80485e1:	89 44 24 08          	mov    %eax,0x8(%esp)
 80485e5:	8d 44 24 10          	lea    0x10(%esp),%eax
 80485e9:	89 44 24 04          	mov    %eax,0x4(%esp)
 80485ed:	c7 04 24 09 00 00 00 	movl   $0x9,(%esp)
 80485f4:	e8 9f 64 00 00       	call   804ea98 <nk_do_syscall>
}
 80485f9:	83 c4 38             	add    $0x38,%esp
 80485fc:	5f                   	pop    %edi
 80485fd:	c3                   	ret    
 80485fe:	66 90                	xchg   %ax,%ax

08048600 <getpgrp>:

pid_t
_DEFUN (getpgrp, (),
        _NOARGS)
{
 8048600:	57                   	push   %edi
 8048601:	83 ec 38             	sub    $0x38,%esp
   int a[] = {0,0,0,0};
 8048604:	8d 7c 24 10          	lea    0x10(%esp),%edi
 8048608:	31 c0                	xor    %eax,%eax
 804860a:	b9 10 00 00 00       	mov    $0x10,%ecx
 804860f:	f3 aa                	rep stos %al,%es:(%edi)
   int b[] = {0,0,0,0};
 8048611:	8d 7c 24 20          	lea    0x20(%esp),%edi
 8048615:	b1 10                	mov    $0x10,%cl
 8048617:	f3 aa                	rep stos %al,%es:(%edi)
   return (int) nk_do_syscall(SYS_GETPGRP, a, b); 
 8048619:	8d 44 24 20          	lea    0x20(%esp),%eax
 804861d:	89 44 24 08          	mov    %eax,0x8(%esp)
 8048621:	8d 44 24 10          	lea    0x10(%esp),%eax
 8048625:	89 44 24 04          	mov    %eax,0x4(%esp)
 8048629:	c7 04 24 04 00 00 00 	movl   $0x4,(%esp)
 8048630:	e8 63 64 00 00       	call   804ea98 <nk_do_syscall>
}
 8048635:	83 c4 38             	add    $0x38,%esp
 8048638:	5f                   	pop    %edi
 8048639:	c3                   	ret    
 804863a:	66 90                	xchg   %ax,%ax

0804863c <getsid>:

pid_t
_DEFUN (getsid, (),
        _NOARGS)
{
 804863c:	57                   	push   %edi
 804863d:	83 ec 38             	sub    $0x38,%esp
   int a[] = {0,0,0,0};
 8048640:	8d 7c 24 10          	lea    0x10(%esp),%edi
 8048644:	31 c0                	xor    %eax,%eax
 8048646:	b9 10 00 00 00       	mov    $0x10,%ecx
 804864b:	f3 aa                	rep stos %al,%es:(%edi)
   int b[] = {0,0,0,0};
 804864d:	8d 7c 24 20          	lea    0x20(%esp),%edi
 8048651:	b1 10                	mov    $0x10,%cl
 8048653:	f3 aa                	rep stos %al,%es:(%edi)
   return (int) nk_do_syscall(SYS_GETSID, a, b); 
 8048655:	8d 44 24 20          	lea    0x20(%esp),%eax
 8048659:	89 44 24 08          	mov    %eax,0x8(%esp)
 804865d:	8d 44 24 10          	lea    0x10(%esp),%eax
 8048661:	89 44 24 04          	mov    %eax,0x4(%esp)
 8048665:	c7 04 24 2e 00 00 00 	movl   $0x2e,(%esp)
 804866c:	e8 27 64 00 00       	call   804ea98 <nk_do_syscall>
}
 8048671:	83 c4 38             	add    $0x38,%esp
 8048674:	5f                   	pop    %edi
 8048675:	c3                   	ret    
 8048676:	66 90                	xchg   %ax,%ax

08048678 <geteuid>:

uid_t
_DEFUN (geteuid, (),
        _NOARGS)
{
 8048678:	57                   	push   %edi
 8048679:	83 ec 38             	sub    $0x38,%esp
   int a[] = {0,0,0,0};
 804867c:	8d 7c 24 10          	lea    0x10(%esp),%edi
 8048680:	31 c0                	xor    %eax,%eax
 8048682:	b9 10 00 00 00       	mov    $0x10,%ecx
 8048687:	f3 aa                	rep stos %al,%es:(%edi)
   int b[] = {0,0,0,0};
 8048689:	8d 7c 24 20          	lea    0x20(%esp),%edi
 804868d:	b1 10                	mov    $0x10,%cl
 804868f:	f3 aa                	rep stos %al,%es:(%edi)
   return (int) nk_do_syscall(SYS_GETEUID, a, b); 
 8048691:	8d 44 24 20          	lea    0x20(%esp),%eax
 8048695:	89 44 24 08          	mov    %eax,0x8(%esp)
 8048699:	8d 44 24 10          	lea    0x10(%esp),%eax
 804869d:	89 44 24 04          	mov    %eax,0x4(%esp)
 80486a1:	c7 04 24 0a 00 00 00 	movl   $0xa,(%esp)
 80486a8:	e8 eb 63 00 00       	call   804ea98 <nk_do_syscall>
}
 80486ad:	83 c4 38             	add    $0x38,%esp
 80486b0:	5f                   	pop    %edi
 80486b1:	c3                   	ret    
 80486b2:	66 90                	xchg   %ax,%ax

080486b4 <getgid>:

gid_t
_DEFUN (getgid, (),
        _NOARGS)
{
 80486b4:	57                   	push   %edi
 80486b5:	83 ec 38             	sub    $0x38,%esp
   int a[] = {0,0,0,0};
 80486b8:	8d 7c 24 10          	lea    0x10(%esp),%edi
 80486bc:	31 c0                	xor    %eax,%eax
 80486be:	b9 10 00 00 00       	mov    $0x10,%ecx
 80486c3:	f3 aa                	rep stos %al,%es:(%edi)
   int b[] = {0,0,0,0};
 80486c5:	8d 7c 24 20          	lea    0x20(%esp),%edi
 80486c9:	b1 10                	mov    $0x10,%cl
 80486cb:	f3 aa                	rep stos %al,%es:(%edi)
   return (int) nk_do_syscall(SYS_GETGID, a, b); 
 80486cd:	8d 44 24 20          	lea    0x20(%esp),%eax
 80486d1:	89 44 24 08          	mov    %eax,0x8(%esp)
 80486d5:	8d 44 24 10          	lea    0x10(%esp),%eax
 80486d9:	89 44 24 04          	mov    %eax,0x4(%esp)
 80486dd:	c7 04 24 0b 00 00 00 	movl   $0xb,(%esp)
 80486e4:	e8 af 63 00 00       	call   804ea98 <nk_do_syscall>
}
 80486e9:	83 c4 38             	add    $0x38,%esp
 80486ec:	5f                   	pop    %edi
 80486ed:	c3                   	ret    
 80486ee:	66 90                	xchg   %ax,%ax

080486f0 <getegid>:

gid_t
_DEFUN (getegid, (),
        _NOARGS)
{
 80486f0:	57                   	push   %edi
 80486f1:	83 ec 38             	sub    $0x38,%esp
   int a[] = {0,0,0,0};
 80486f4:	8d 7c 24 10          	lea    0x10(%esp),%edi
 80486f8:	31 c0                	xor    %eax,%eax
 80486fa:	b9 10 00 00 00       	mov    $0x10,%ecx
 80486ff:	f3 aa                	rep stos %al,%es:(%edi)
   int b[] = {0,0,0,0};
 8048701:	8d 7c 24 20          	lea    0x20(%esp),%edi
 8048705:	b1 10                	mov    $0x10,%cl
 8048707:	f3 aa                	rep stos %al,%es:(%edi)
   return (int) nk_do_syscall(SYS_GETEGID, a, b); 
 8048709:	8d 44 24 20          	lea    0x20(%esp),%eax
 804870d:	89 44 24 08          	mov    %eax,0x8(%esp)
 8048711:	8d 44 24 10          	lea    0x10(%esp),%eax
 8048715:	89 44 24 04          	mov    %eax,0x4(%esp)
 8048719:	c7 04 24 0c 00 00 00 	movl   $0xc,(%esp)
 8048720:	e8 73 63 00 00       	call   804ea98 <nk_do_syscall>
}
 8048725:	83 c4 38             	add    $0x38,%esp
 8048728:	5f                   	pop    %edi
 8048729:	c3                   	ret    
 804872a:	66 90                	xchg   %ax,%ax

0804872c <setsid>:

pid_t
_DEFUN (setsid, (),
        _NOARGS)
{
 804872c:	57                   	push   %edi
 804872d:	83 ec 38             	sub    $0x38,%esp
   int a[] = {0,0,0,0};
 8048730:	8d 7c 24 10          	lea    0x10(%esp),%edi
 8048734:	31 c0                	xor    %eax,%eax
 8048736:	b9 10 00 00 00       	mov    $0x10,%ecx
 804873b:	f3 aa                	rep stos %al,%es:(%edi)
   int b[] = {0,0,0,0};
 804873d:	8d 7c 24 20          	lea    0x20(%esp),%edi
 8048741:	b1 10                	mov    $0x10,%cl
 8048743:	f3 aa                	rep stos %al,%es:(%edi)
   return (int) nk_do_syscall(SYS_SETSID, a, b); 
 8048745:	8d 44 24 20          	lea    0x20(%esp),%eax
 8048749:	89 44 24 08          	mov    %eax,0x8(%esp)
 804874d:	8d 44 24 10          	lea    0x10(%esp),%eax
 8048751:	89 44 24 04          	mov    %eax,0x4(%esp)
 8048755:	c7 04 24 05 00 00 00 	movl   $0x5,(%esp)
 804875c:	e8 37 63 00 00       	call   804ea98 <nk_do_syscall>
}
 8048761:	83 c4 38             	add    $0x38,%esp
 8048764:	5f                   	pop    %edi
 8048765:	c3                   	ret    
 8048766:	66 90                	xchg   %ax,%ax

08048768 <setpgrp>:

int
_DEFUN (setpgrp, (),
        _NOARGS)
{
 8048768:	57                   	push   %edi
 8048769:	83 ec 38             	sub    $0x38,%esp
   int a[] = {0,0,0,0};
 804876c:	8d 7c 24 10          	lea    0x10(%esp),%edi
 8048770:	31 c0                	xor    %eax,%eax
 8048772:	b9 10 00 00 00       	mov    $0x10,%ecx
 8048777:	f3 aa                	rep stos %al,%es:(%edi)
   int b[] = {0,0,0,0};
 8048779:	8d 7c 24 20          	lea    0x20(%esp),%edi
 804877d:	b1 10                	mov    $0x10,%cl
 804877f:	f3 aa                	rep stos %al,%es:(%edi)
   return (int) nk_do_syscall(SYS_SETPGRP, a, b); 
 8048781:	8d 44 24 20          	lea    0x20(%esp),%eax
 8048785:	89 44 24 08          	mov    %eax,0x8(%esp)
 8048789:	8d 44 24 10          	lea    0x10(%esp),%eax
 804878d:	89 44 24 04          	mov    %eax,0x4(%esp)
 8048791:	c7 04 24 2d 00 00 00 	movl   $0x2d,(%esp)
 8048798:	e8 fb 62 00 00       	call   804ea98 <nk_do_syscall>
}
 804879d:	83 c4 38             	add    $0x38,%esp
 80487a0:	5f                   	pop    %edi
 80487a1:	c3                   	ret    
 80487a2:	66 90                	xchg   %ax,%ax

080487a4 <setuid>:

int setuid(int uid) {
 80487a4:	57                   	push   %edi
 80487a5:	83 ec 38             	sub    $0x38,%esp
   int a[] = {uid,0,0,0};
 80487a8:	8b 44 24 40          	mov    0x40(%esp),%eax
 80487ac:	89 44 24 10          	mov    %eax,0x10(%esp)
 80487b0:	c7 44 24 14 00 00 00 	movl   $0x0,0x14(%esp)
 80487b7:	00 
 80487b8:	c7 44 24 18 00 00 00 	movl   $0x0,0x18(%esp)
 80487bf:	00 
 80487c0:	c7 44 24 1c 00 00 00 	movl   $0x0,0x1c(%esp)
 80487c7:	00 
   int b[] = {0,0,0,0};
 80487c8:	8d 7c 24 20          	lea    0x20(%esp),%edi
 80487cc:	b9 10 00 00 00       	mov    $0x10,%ecx
 80487d1:	31 c0                	xor    %eax,%eax
 80487d3:	f3 aa                	rep stos %al,%es:(%edi)
   return (int) nk_do_syscall(SYS_SETUID, a, b); 
 80487d5:	8d 44 24 20          	lea    0x20(%esp),%eax
 80487d9:	89 44 24 08          	mov    %eax,0x8(%esp)
 80487dd:	8d 44 24 10          	lea    0x10(%esp),%eax
 80487e1:	89 44 24 04          	mov    %eax,0x4(%esp)
 80487e5:	c7 04 24 34 00 00 00 	movl   $0x34,(%esp)
 80487ec:	e8 a7 62 00 00       	call   804ea98 <nk_do_syscall>
}
 80487f1:	83 c4 38             	add    $0x38,%esp
 80487f4:	5f                   	pop    %edi
 80487f5:	c3                   	ret    
 80487f6:	66 90                	xchg   %ax,%ax

080487f8 <setgid>:

int setgid(int gid) {
 80487f8:	57                   	push   %edi
 80487f9:	83 ec 38             	sub    $0x38,%esp
   int a[] = {gid,0,0,0};
 80487fc:	8b 44 24 40          	mov    0x40(%esp),%eax
 8048800:	89 44 24 10          	mov    %eax,0x10(%esp)
 8048804:	c7 44 24 14 00 00 00 	movl   $0x0,0x14(%esp)
 804880b:	00 
 804880c:	c7 44 24 18 00 00 00 	movl   $0x0,0x18(%esp)
 8048813:	00 
 8048814:	c7 44 24 1c 00 00 00 	movl   $0x0,0x1c(%esp)
 804881b:	00 
   int b[] = {0,0,0,0};
 804881c:	8d 7c 24 20          	lea    0x20(%esp),%edi
 8048820:	b9 10 00 00 00       	mov    $0x10,%ecx
 8048825:	31 c0                	xor    %eax,%eax
 8048827:	f3 aa                	rep stos %al,%es:(%edi)
   return (int) nk_do_syscall(SYS_SETGID, a, b); 
 8048829:	8d 44 24 20          	lea    0x20(%esp),%eax
 804882d:	89 44 24 08          	mov    %eax,0x8(%esp)
 8048831:	8d 44 24 10          	lea    0x10(%esp),%eax
 8048835:	89 44 24 04          	mov    %eax,0x4(%esp)
 8048839:	c7 04 24 35 00 00 00 	movl   $0x35,(%esp)
 8048840:	e8 53 62 00 00       	call   804ea98 <nk_do_syscall>
}
 8048845:	83 c4 38             	add    $0x38,%esp
 8048848:	5f                   	pop    %edi
 8048849:	c3                   	ret    
 804884a:	66 90                	xchg   %ax,%ax

0804884c <setresuid>:

int setresuid(int uid) {
	return 0;
}
 804884c:	31 c0                	xor    %eax,%eax
 804884e:	c3                   	ret    
 804884f:	90                   	nop

08048850 <setresgid>:

int setresgid(int gid) {
	return 0;
}
 8048850:	31 c0                	xor    %eax,%eax
 8048852:	c3                   	ret    
 8048853:	90                   	nop

08048854 <getgrgid>:

int getgrgid(){
 8048854:	83 ec 0c             	sub    $0xc,%esp
	return getgid();
 8048857:	e8 58 fe ff ff       	call   80486b4 <getgid>
 804885c:	0f b7 c0             	movzwl %ax,%eax
}
 804885f:	83 c4 0c             	add    $0xc,%esp
 8048862:	c3                   	ret    
 8048863:	90                   	nop

08048864 <setpgid>:

int setpgid(pid_t pid, pid_t pgid) {
 8048864:	57                   	push   %edi
 8048865:	83 ec 38             	sub    $0x38,%esp
   int a[] = {(int)pid,(int)pgid,0,0};
 8048868:	8b 44 24 40          	mov    0x40(%esp),%eax
 804886c:	89 44 24 10          	mov    %eax,0x10(%esp)
 8048870:	8b 44 24 44          	mov    0x44(%esp),%eax
 8048874:	89 44 24 14          	mov    %eax,0x14(%esp)
 8048878:	c7 44 24 18 00 00 00 	movl   $0x0,0x18(%esp)
 804887f:	00 
 8048880:	c7 44 24 1c 00 00 00 	movl   $0x0,0x1c(%esp)
 8048887:	00 
   int b[] = {0,0,0,0};
 8048888:	8d 7c 24 20          	lea    0x20(%esp),%edi
 804888c:	b9 10 00 00 00       	mov    $0x10,%ecx
 8048891:	31 c0                	xor    %eax,%eax
 8048893:	f3 aa                	rep stos %al,%es:(%edi)
   return (int) nk_do_syscall(SYS_SETPGID, a, b); 
 8048895:	8d 44 24 20          	lea    0x20(%esp),%eax
 8048899:	89 44 24 08          	mov    %eax,0x8(%esp)
 804889d:	8d 44 24 10          	lea    0x10(%esp),%eax
 80488a1:	89 44 24 04          	mov    %eax,0x4(%esp)
 80488a5:	c7 04 24 2f 00 00 00 	movl   $0x2f,(%esp)
 80488ac:	e8 e7 61 00 00       	call   804ea98 <nk_do_syscall>
}
 80488b1:	83 c4 38             	add    $0x38,%esp
 80488b4:	5f                   	pop    %edi
 80488b5:	c3                   	ret    
 80488b6:	66 90                	xchg   %ax,%ax

080488b8 <signal>:

typedef void (*sighandler_t)(int);

sighandler_t signal(int signum, sighandler_t handler)
{
 80488b8:	57                   	push   %edi
 80488b9:	83 ec 38             	sub    $0x38,%esp
   int a[] = {(int)signum,(int)handler,0,0};
 80488bc:	8b 44 24 40          	mov    0x40(%esp),%eax
 80488c0:	89 44 24 10          	mov    %eax,0x10(%esp)
 80488c4:	8b 44 24 44          	mov    0x44(%esp),%eax
 80488c8:	89 44 24 14          	mov    %eax,0x14(%esp)
 80488cc:	c7 44 24 18 00 00 00 	movl   $0x0,0x18(%esp)
 80488d3:	00 
 80488d4:	c7 44 24 1c 00 00 00 	movl   $0x0,0x1c(%esp)
 80488db:	00 
   int b[] = {0,0,0,0};
 80488dc:	8d 7c 24 20          	lea    0x20(%esp),%edi
 80488e0:	b9 10 00 00 00       	mov    $0x10,%ecx
 80488e5:	31 c0                	xor    %eax,%eax
 80488e7:	f3 aa                	rep stos %al,%es:(%edi)
   return (int) nk_do_syscall(SYS_SIGNAL, a, b); 
 80488e9:	8d 44 24 20          	lea    0x20(%esp),%eax
 80488ed:	89 44 24 08          	mov    %eax,0x8(%esp)
 80488f1:	8d 44 24 10          	lea    0x10(%esp),%eax
 80488f5:	89 44 24 04          	mov    %eax,0x4(%esp)
 80488f9:	c7 04 24 36 00 00 00 	movl   $0x36,(%esp)
 8048900:	e8 93 61 00 00       	call   804ea98 <nk_do_syscall>
}
 8048905:	83 c4 38             	add    $0x38,%esp
 8048908:	5f                   	pop    %edi
 8048909:	c3                   	ret    
 804890a:	66 90                	xchg   %ax,%ax

0804890c <exitsig>:

void exitsig()
{
 804890c:	57                   	push   %edi
 804890d:	83 ec 38             	sub    $0x38,%esp
   int a[] = {0,0,0,0};
 8048910:	8d 7c 24 10          	lea    0x10(%esp),%edi
 8048914:	31 c0                	xor    %eax,%eax
 8048916:	b9 10 00 00 00       	mov    $0x10,%ecx
 804891b:	f3 aa                	rep stos %al,%es:(%edi)
   int b[] = {0,0,0,0};
 804891d:	8d 7c 24 20          	lea    0x20(%esp),%edi
 8048921:	b1 10                	mov    $0x10,%cl
 8048923:	f3 aa                	rep stos %al,%es:(%edi)
   return (int) nk_do_syscall(SYS_EXITSIG, a, b); 
 8048925:	8d 44 24 20          	lea    0x20(%esp),%eax
 8048929:	89 44 24 08          	mov    %eax,0x8(%esp)
 804892d:	8d 44 24 10          	lea    0x10(%esp),%eax
 8048931:	89 44 24 04          	mov    %eax,0x4(%esp)
 8048935:	c7 04 24 37 00 00 00 	movl   $0x37,(%esp)
 804893c:	e8 57 61 00 00       	call   804ea98 <nk_do_syscall>
	
}
 8048941:	83 c4 38             	add    $0x38,%esp
 8048944:	5f                   	pop    %edi
 8048945:	c3                   	ret    
 8048946:	66 90                	xchg   %ax,%ax

08048948 <getgroups>:
}

int getgroups(int size, gid_t list[])
{
	return 0;//TODO: Implement getgroups
}
 8048948:	31 c0                	xor    %eax,%eax
 804894a:	c3                   	ret    
 804894b:	90                   	nop

0804894c <sigaction>:

int sigaction(int signum, const struct sigaction *act,
                     struct sigaction *oldact)
{
	return 0;
}
 804894c:	31 c0                	xor    %eax,%eax
 804894e:	c3                   	ret    
 804894f:	90                   	nop

08048950 <sigprocmask>:

int sigprocmask(int how, const sigset_t *set, sigset_t *oldset)
{
	return 0;
}
 8048950:	31 c0                	xor    %eax,%eax
 8048952:	c3                   	ret    
 8048953:	90                   	nop

08048954 <alarm>:

unsigned int alarm(unsigned int seconds)
{
	return 0;
}
 8048954:	31 c0                	xor    %eax,%eax
 8048956:	c3                   	ret    
 8048957:	90                   	nop

08048958 <sleep>:

unsigned int sleep(unsigned int seconds)
{
 8048958:	57                   	push   %edi
 8048959:	83 ec 38             	sub    $0x38,%esp
   int a[] = {(uint32_t) seconds, 0,0,0};
 804895c:	8b 44 24 40          	mov    0x40(%esp),%eax
 8048960:	89 44 24 10          	mov    %eax,0x10(%esp)
 8048964:	c7 44 24 14 00 00 00 	movl   $0x0,0x14(%esp)
 804896b:	00 
 804896c:	c7 44 24 18 00 00 00 	movl   $0x0,0x18(%esp)
 8048973:	00 
 8048974:	c7 44 24 1c 00 00 00 	movl   $0x0,0x1c(%esp)
 804897b:	00 
   int b[] = {0,0,0,0};
 804897c:	8d 7c 24 20          	lea    0x20(%esp),%edi
 8048980:	b9 10 00 00 00       	mov    $0x10,%ecx
 8048985:	31 c0                	xor    %eax,%eax
 8048987:	f3 aa                	rep stos %al,%es:(%edi)
   return nk_do_syscall(SYS_SLEEP, a, b); 
 8048989:	8d 44 24 20          	lea    0x20(%esp),%eax
 804898d:	89 44 24 08          	mov    %eax,0x8(%esp)
 8048991:	8d 44 24 10          	lea    0x10(%esp),%eax
 8048995:	89 44 24 04          	mov    %eax,0x4(%esp)
 8048999:	c7 04 24 32 00 00 00 	movl   $0x32,(%esp)
 80489a0:	e8 f3 60 00 00       	call   804ea98 <nk_do_syscall>
}
 80489a5:	83 c4 38             	add    $0x38,%esp
 80489a8:	5f                   	pop    %edi
 80489a9:	c3                   	ret    
 80489aa:	66 90                	xchg   %ax,%ax

080489ac <nanosleep>:

int nanosleep(const struct timespec *req, struct timespec *rem)
{
 80489ac:	83 ec 1c             	sub    $0x1c,%esp
	sleep((unsigned int)req->tv_sec);
 80489af:	8b 44 24 20          	mov    0x20(%esp),%eax
 80489b3:	8b 00                	mov    (%eax),%eax
 80489b5:	89 04 24             	mov    %eax,(%esp)
 80489b8:	e8 9b ff ff ff       	call   8048958 <sleep>
	return 0;
}
 80489bd:	31 c0                	xor    %eax,%eax
 80489bf:	83 c4 1c             	add    $0x1c,%esp
 80489c2:	c3                   	ret    
 80489c3:	90                   	nop

080489c4 <stime>:

int stime(time_t *t)
{
 80489c4:	57                   	push   %edi
 80489c5:	83 ec 38             	sub    $0x38,%esp
   int a[] = {(uint32_t) t, 0,0,0};
 80489c8:	8b 44 24 40          	mov    0x40(%esp),%eax
 80489cc:	89 44 24 10          	mov    %eax,0x10(%esp)
 80489d0:	c7 44 24 14 00 00 00 	movl   $0x0,0x14(%esp)
 80489d7:	00 
 80489d8:	c7 44 24 18 00 00 00 	movl   $0x0,0x18(%esp)
 80489df:	00 
 80489e0:	c7 44 24 1c 00 00 00 	movl   $0x0,0x1c(%esp)
 80489e7:	00 
   int b[] = {0,0,0,0};
 80489e8:	8d 7c 24 20          	lea    0x20(%esp),%edi
 80489ec:	b9 10 00 00 00       	mov    $0x10,%ecx
 80489f1:	31 c0                	xor    %eax,%eax
 80489f3:	f3 aa                	rep stos %al,%es:(%edi)
   return nk_do_syscall(SYS_STIME, a, b); 
 80489f5:	8d 44 24 20          	lea    0x20(%esp),%eax
 80489f9:	89 44 24 08          	mov    %eax,0x8(%esp)
 80489fd:	8d 44 24 10          	lea    0x10(%esp),%eax
 8048a01:	89 44 24 04          	mov    %eax,0x4(%esp)
 8048a05:	c7 04 24 33 00 00 00 	movl   $0x33,(%esp)
 8048a0c:	e8 87 60 00 00       	call   804ea98 <nk_do_syscall>
}
 8048a11:	83 c4 38             	add    $0x38,%esp
 8048a14:	5f                   	pop    %edi
 8048a15:	c3                   	ret    
 8048a16:	66 90                	xchg   %ax,%ax

08048a18 <usleep>:

int usleep(useconds_t usec)
{
 8048a18:	57                   	push   %edi
 8048a19:	83 ec 38             	sub    $0x38,%esp
   int a[] = {(uint32_t) usec, 0,0,0};
 8048a1c:	8b 44 24 40          	mov    0x40(%esp),%eax
 8048a20:	89 44 24 10          	mov    %eax,0x10(%esp)
 8048a24:	c7 44 24 14 00 00 00 	movl   $0x0,0x14(%esp)
 8048a2b:	00 
 8048a2c:	c7 44 24 18 00 00 00 	movl   $0x0,0x18(%esp)
 8048a33:	00 
 8048a34:	c7 44 24 1c 00 00 00 	movl   $0x0,0x1c(%esp)
 8048a3b:	00 
   int b[] = {0,0,0,0};
 8048a3c:	8d 7c 24 20          	lea    0x20(%esp),%edi
 8048a40:	b9 10 00 00 00       	mov    $0x10,%ecx
 8048a45:	31 c0                	xor    %eax,%eax
 8048a47:	f3 aa                	rep stos %al,%es:(%edi)
   return nk_do_syscall(SYS_USLEEP, a, b); 
 8048a49:	8d 44 24 20          	lea    0x20(%esp),%eax
 8048a4d:	89 44 24 08          	mov    %eax,0x8(%esp)
 8048a51:	8d 44 24 10          	lea    0x10(%esp),%eax
 8048a55:	89 44 24 04          	mov    %eax,0x4(%esp)
 8048a59:	c7 04 24 31 00 00 00 	movl   $0x31,(%esp)
 8048a60:	e8 33 60 00 00       	call   804ea98 <nk_do_syscall>
}
 8048a65:	83 c4 38             	add    $0x38,%esp
 8048a68:	5f                   	pop    %edi
 8048a69:	c3                   	ret    
 8048a6a:	66 90                	xchg   %ax,%ax

08048a6c <kill>:

int
_DEFUN (kill, (pid, sig),
        int pid  _AND
        int sig)
{  
 8048a6c:	57                   	push   %edi
 8048a6d:	83 ec 38             	sub    $0x38,%esp
   int a[] = {pid,sig,0,0};
 8048a70:	8b 44 24 40          	mov    0x40(%esp),%eax
 8048a74:	89 44 24 10          	mov    %eax,0x10(%esp)
 8048a78:	8b 44 24 44          	mov    0x44(%esp),%eax
 8048a7c:	89 44 24 14          	mov    %eax,0x14(%esp)
 8048a80:	c7 44 24 18 00 00 00 	movl   $0x0,0x18(%esp)
 8048a87:	00 
 8048a88:	c7 44 24 1c 00 00 00 	movl   $0x0,0x1c(%esp)
 8048a8f:	00 
   int b[] = {0,0,0,0};
 8048a90:	8d 7c 24 20          	lea    0x20(%esp),%edi
 8048a94:	b9 10 00 00 00       	mov    $0x10,%ecx
 8048a99:	31 c0                	xor    %eax,%eax
 8048a9b:	f3 aa                	rep stos %al,%es:(%edi)
   return (int) nk_do_syscall(SYS_KILL, a, b); 
 8048a9d:	8d 44 24 20          	lea    0x20(%esp),%eax
 8048aa1:	89 44 24 08          	mov    %eax,0x8(%esp)
 8048aa5:	8d 44 24 10          	lea    0x10(%esp),%eax
 8048aa9:	89 44 24 04          	mov    %eax,0x4(%esp)
 8048aad:	c7 04 24 02 00 00 00 	movl   $0x2,(%esp)
 8048ab4:	e8 df 5f 00 00       	call   804ea98 <nk_do_syscall>
}
 8048ab9:	83 c4 38             	add    $0x38,%esp
 8048abc:	5f                   	pop    %edi
 8048abd:	c3                   	ret    
 8048abe:	66 90                	xchg   %ax,%ax

08048ac0 <killpg>:
   return (int) nk_do_syscall(SYS_EXITSIG, a, b); 
	
}

int killpg(int pgrp, int sig)
{
 8048ac0:	8b 44 24 04          	mov    0x4(%esp),%eax
	return kill(-pgrp, sig);
 8048ac4:	f7 d8                	neg    %eax
 8048ac6:	89 44 24 04          	mov    %eax,0x4(%esp)
 8048aca:	e9 9d ff ff ff       	jmp    8048a6c <kill>
 8048acf:	90                   	nop

08048ad0 <sbrk>:
}

void *
sbrk (incr)
     int incr;
{ 
 8048ad0:	57                   	push   %edi
 8048ad1:	83 ec 38             	sub    $0x38,%esp
   int a[] = {(uint32_t) incr,0,0,0};
 8048ad4:	8b 44 24 40          	mov    0x40(%esp),%eax
 8048ad8:	89 44 24 10          	mov    %eax,0x10(%esp)
 8048adc:	c7 44 24 14 00 00 00 	movl   $0x0,0x14(%esp)
 8048ae3:	00 
 8048ae4:	c7 44 24 18 00 00 00 	movl   $0x0,0x18(%esp)
 8048aeb:	00 
 8048aec:	c7 44 24 1c 00 00 00 	movl   $0x0,0x1c(%esp)
 8048af3:	00 
   int b[] = {0,0,0,0};
 8048af4:	8d 7c 24 20          	lea    0x20(%esp),%edi
 8048af8:	b9 10 00 00 00       	mov    $0x10,%ecx
 8048afd:	31 c0                	xor    %eax,%eax
 8048aff:	f3 aa                	rep stos %al,%es:(%edi)
   return (void *) nk_do_syscall(SYS_SBRK, a, b); 
 8048b01:	8d 44 24 20          	lea    0x20(%esp),%eax
 8048b05:	89 44 24 08          	mov    %eax,0x8(%esp)
 8048b09:	8d 44 24 10          	lea    0x10(%esp),%eax
 8048b0d:	89 44 24 04          	mov    %eax,0x4(%esp)
 8048b11:	c7 04 24 08 00 00 00 	movl   $0x8,(%esp)
 8048b18:	e8 7b 5f 00 00       	call   804ea98 <nk_do_syscall>
} 
 8048b1d:	83 c4 38             	add    $0x38,%esp
 8048b20:	5f                   	pop    %edi
 8048b21:	c3                   	ret    
 8048b22:	66 90                	xchg   %ax,%ax

08048b24 <waitpid>:
int
_DEFUN (waitpid, (pid, status, options),
	pid_t pid _AND
        int  *status _AND
	int  options)
{
 8048b24:	57                   	push   %edi
 8048b25:	83 ec 38             	sub    $0x38,%esp
	//Calls WAITPID!!!
   uint32_t a[] = {(uint32_t) pid, (uint32_t) status, (uint32_t) options, 0};
 8048b28:	8b 44 24 40          	mov    0x40(%esp),%eax
 8048b2c:	89 44 24 10          	mov    %eax,0x10(%esp)
 8048b30:	8b 44 24 44          	mov    0x44(%esp),%eax
 8048b34:	89 44 24 14          	mov    %eax,0x14(%esp)
 8048b38:	8b 44 24 48          	mov    0x48(%esp),%eax
 8048b3c:	89 44 24 18          	mov    %eax,0x18(%esp)
 8048b40:	c7 44 24 1c 00 00 00 	movl   $0x0,0x1c(%esp)
 8048b47:	00 
   uint32_t b[] = {0, 0, 0, 0};
 8048b48:	8d 7c 24 20          	lea    0x20(%esp),%edi
 8048b4c:	b9 10 00 00 00       	mov    $0x10,%ecx
 8048b51:	31 c0                	xor    %eax,%eax
 8048b53:	f3 aa                	rep stos %al,%es:(%edi)
   return (int) nk_do_syscall(SYS_WAITPID, a, b); 
 8048b55:	8d 44 24 20          	lea    0x20(%esp),%eax
 8048b59:	89 44 24 08          	mov    %eax,0x8(%esp)
 8048b5d:	8d 44 24 10          	lea    0x10(%esp),%eax
 8048b61:	89 44 24 04          	mov    %eax,0x4(%esp)
 8048b65:	c7 04 24 24 00 00 00 	movl   $0x24,(%esp)
 8048b6c:	e8 27 5f 00 00       	call   804ea98 <nk_do_syscall>
}
 8048b71:	83 c4 38             	add    $0x38,%esp
 8048b74:	5f                   	pop    %edi
 8048b75:	c3                   	ret    
 8048b76:	66 90                	xchg   %ax,%ax

08048b78 <wait3>:
}

pid_t wait3(int *status, int options,
                   struct rusage *rusage)
{
	return waitpid(-1,status,options);
 8048b78:	8b 44 24 08          	mov    0x8(%esp),%eax
 8048b7c:	89 44 24 0c          	mov    %eax,0xc(%esp)
 8048b80:	8b 44 24 04          	mov    0x4(%esp),%eax
 8048b84:	89 44 24 08          	mov    %eax,0x8(%esp)
 8048b88:	c7 44 24 04 ff ff ff 	movl   $0xffffffff,0x4(%esp)
 8048b8f:	ff 
 8048b90:	e9 8f ff ff ff       	jmp    8048b24 <waitpid>
 8048b95:	8d 76 00             	lea    0x0(%esi),%esi

08048b98 <wait>:
{
	return 0;//TODO: Implement getgroups
}
 
pid_t wait(int *status)
{
 8048b98:	83 ec 1c             	sub    $0x1c,%esp
	return waitpid (-1,status,0);
 8048b9b:	c7 44 24 08 00 00 00 	movl   $0x0,0x8(%esp)
 8048ba2:	00 
 8048ba3:	8b 44 24 20          	mov    0x20(%esp),%eax
 8048ba7:	89 44 24 04          	mov    %eax,0x4(%esp)
 8048bab:	c7 04 24 ff ff ff ff 	movl   $0xffffffff,(%esp)
 8048bb2:	e8 6d ff ff ff       	call   8048b24 <waitpid>
}
 8048bb7:	83 c4 1c             	add    $0x1c,%esp
 8048bba:	c3                   	ret    
 8048bbb:	90                   	nop

08048bbc <times>:
}

clock_t
_DEFUN (times, (buf),
        struct tms *buf)
{
 8048bbc:	83 ec 0c             	sub    $0xc,%esp
  errno = ENOSYS;
 8048bbf:	e8 3c 39 00 00       	call   804c500 <__errno>
 8048bc4:	c7 00 58 00 00 00    	movl   $0x58,(%eax)
  return -1;
}
 8048bca:	b8 ff ff ff ff       	mov    $0xffffffff,%eax
 8048bcf:	83 c4 0c             	add    $0xc,%esp
 8048bd2:	c3                   	ret    
 8048bd3:	90                   	nop

08048bd4 <clearenv>:

int clearenv(){
	return 0;
}
 8048bd4:	31 c0                	xor    %eax,%eax
 8048bd6:	c3                   	ret    
 8048bd7:	90                   	nop

08048bd8 <getgrouplist>:

int getgrouplist(const char *user, gid_t group,
                        gid_t *groups, int *ngroups)
{
	*ngroups = 0;
 8048bd8:	8b 44 24 10          	mov    0x10(%esp),%eax
 8048bdc:	c7 00 00 00 00 00    	movl   $0x0,(%eax)
	return *ngroups;
}
 8048be2:	31 c0                	xor    %eax,%eax
 8048be4:	c3                   	ret    
 8048be5:	90                   	nop
 8048be6:	90                   	nop
 8048be7:	90                   	nop
 8048be8:	90                   	nop
 8048be9:	90                   	nop
 8048bea:	90                   	nop
 8048beb:	90                   	nop
 8048bec:	90                   	nop
 8048bed:	90                   	nop
 8048bee:	90                   	nop
 8048bef:	90                   	nop

08048bf0 <strlen>:
	.global SYM (strlen)
       SOTYPE_FUNCTION(strlen)

SYM (strlen):

	pushl ebp
 8048bf0:	55                   	push   %ebp
	movl esp,ebp
 8048bf1:	89 e5                	mov    %esp,%ebp
	pushl edi
 8048bf3:	57                   	push   %edi
	movl 8(ebp),edx
 8048bf4:	8b 55 08             	mov    0x8(%ebp),%edx
#else
/* Modern x86 hardware is much faster at double-word
   manipulation than with bytewise repnz scasb.  */

/* Do byte-wise checks until string is aligned.  */
	movl edx,edi
 8048bf7:	89 d7                	mov    %edx,%edi
	test $3,edi
 8048bf9:	f7 c7 03 00 00 00    	test   $0x3,%edi
	je L5
 8048bff:	74 25                	je     8048c26 <L5>
	movb (edi),cl
 8048c01:	8a 0f                	mov    (%edi),%cl
	incl edi
 8048c03:	47                   	inc    %edi
	testb cl,cl
 8048c04:	84 c9                	test   %cl,%cl
	je L15
 8048c06:	74 56                	je     8048c5e <L15>

	test $3,edi
 8048c08:	f7 c7 03 00 00 00    	test   $0x3,%edi
	je L5
 8048c0e:	74 16                	je     8048c26 <L5>
	movb (edi),cl
 8048c10:	8a 0f                	mov    (%edi),%cl
	incl edi
 8048c12:	47                   	inc    %edi
	testb cl,cl
 8048c13:	84 c9                	test   %cl,%cl
	je L15
 8048c15:	74 47                	je     8048c5e <L15>

	test $3,edi
 8048c17:	f7 c7 03 00 00 00    	test   $0x3,%edi
	je L5
 8048c1d:	74 07                	je     8048c26 <L5>
	movb (edi),cl
 8048c1f:	8a 0f                	mov    (%edi),%cl
	incl edi
 8048c21:	47                   	inc    %edi
	testb cl,cl
 8048c22:	84 c9                	test   %cl,%cl
	je L15
 8048c24:	74 38                	je     8048c5e <L15>

08048c26 <L5>:

L5:
	subl $4,edi
 8048c26:	83 ef 04             	sub    $0x4,%edi
 8048c29:	8d b4 26 00 00 00 00 	lea    0x0(%esi,%eiz,1),%esi

08048c30 <L10>:

/* loop performing 4 byte mask checking for desired 0 byte */
	.p2align 4,,7
L10:
	addl $4,edi
 8048c30:	83 c7 04             	add    $0x4,%edi
	movl (edi),ecx
 8048c33:	8b 0f                	mov    (%edi),%ecx
	leal -16843009(ecx),eax
 8048c35:	8d 81 ff fe fe fe    	lea    -0x1010101(%ecx),%eax
	notl ecx
 8048c3b:	f7 d1                	not    %ecx
	andl ecx,eax
 8048c3d:	21 c8                	and    %ecx,%eax
	testl $-2139062144,eax
 8048c3f:	a9 80 80 80 80       	test   $0x80808080,%eax
	je L10
 8048c44:	74 ea                	je     8048c30 <L10>

/* Find which of four bytes is 0.  */
	notl ecx
 8048c46:	f7 d1                	not    %ecx
	incl edi
 8048c48:	47                   	inc    %edi

	testb cl,cl
 8048c49:	84 c9                	test   %cl,%cl
	je L15
 8048c4b:	74 11                	je     8048c5e <L15>
	incl edi
 8048c4d:	47                   	inc    %edi
	shrl $8,ecx
 8048c4e:	c1 e9 08             	shr    $0x8,%ecx

	testb cl,cl
 8048c51:	84 c9                	test   %cl,%cl
	je L15
 8048c53:	74 09                	je     8048c5e <L15>
	incl edi
 8048c55:	47                   	inc    %edi
	shrl $8,ecx
 8048c56:	c1 e9 08             	shr    $0x8,%ecx

	testb cl,cl
 8048c59:	84 c9                	test   %cl,%cl
	je L15
 8048c5b:	74 01                	je     8048c5e <L15>
	incl edi
 8048c5d:	47                   	inc    %edi

08048c5e <L15>:

#endif

L15:
	subl edx,edi
 8048c5e:	29 d7                	sub    %edx,%edi
	leal -1(edi),eax
 8048c60:	8d 47 ff             	lea    -0x1(%edi),%eax

	leal -4(ebp),esp
 8048c63:	8d 65 fc             	lea    -0x4(%ebp),%esp
	popl edi
 8048c66:	5f                   	pop    %edi
	leave
 8048c67:	c9                   	leave  
	ret
 8048c68:	c3                   	ret    
 8048c69:	90                   	nop
 8048c6a:	90                   	nop
 8048c6b:	90                   	nop

08048c6c <_vfprintf_r>:
_DEFUN(_VFPRINTF_R, (data, fp, fmt0, ap),
       struct _reent *data _AND
       FILE * fp           _AND
       _CONST char *fmt0   _AND
       va_list ap)
{
 8048c6c:	55                   	push   %ebp
 8048c6d:	57                   	push   %edi
 8048c6e:	56                   	push   %esi
 8048c6f:	53                   	push   %ebx
 8048c70:	81 ec 4c 01 00 00    	sub    $0x14c,%esp
	char *thousands_sep = NULL;
	size_t thsnd_len = 0;
	const char *grouping = NULL;
#endif
#ifdef FLOATING_POINT
	char *decimal_point = _localeconv_r (data)->decimal_point;
 8048c76:	8b 84 24 60 01 00 00 	mov    0x160(%esp),%eax
 8048c7d:	89 04 24             	mov    %eax,(%esp)
 8048c80:	e8 a7 46 00 00       	call   804d32c <_localeconv_r>
 8048c85:	8b 00                	mov    (%eax),%eax
 8048c87:	89 44 24 74          	mov    %eax,0x74(%esp)
	size_t decp_len = strlen (decimal_point);
 8048c8b:	89 04 24             	mov    %eax,(%esp)
 8048c8e:	e8 5d ff ff ff       	call   8048bf0 <strlen>
 8048c93:	89 44 24 7c          	mov    %eax,0x7c(%esp)
	    (u_long)GET_ARG (N, ap, u_int))
#endif

#ifndef STRING_ONLY
	/* Initialize std streams if not dealing with sprintf family.  */
	CHECK_INIT (data, fp);
 8048c97:	8b bc 24 60 01 00 00 	mov    0x160(%esp),%edi
 8048c9e:	85 ff                	test   %edi,%edi
 8048ca0:	74 12                	je     8048cb4 <_vfprintf_r+0x48>
 8048ca2:	8b 84 24 60 01 00 00 	mov    0x160(%esp),%eax
 8048ca9:	8b 70 38             	mov    0x38(%eax),%esi
 8048cac:	85 f6                	test   %esi,%esi
 8048cae:	0f 84 78 06 00 00    	je     804932c <_vfprintf_r+0x6c0>
	_newlib_flockfile_start (fp);

	ORIENT(fp, -1);
 8048cb4:	8b 94 24 64 01 00 00 	mov    0x164(%esp),%edx
 8048cbb:	8b 42 0c             	mov    0xc(%edx),%eax
 8048cbe:	f6 c4 20             	test   $0x20,%ah
 8048cc1:	75 0e                	jne    8048cd1 <_vfprintf_r+0x65>
 8048cc3:	80 cc 20             	or     $0x20,%ah
 8048cc6:	66 89 42 0c          	mov    %ax,0xc(%edx)
 8048cca:	81 62 64 ff df ff ff 	andl   $0xffffdfff,0x64(%edx)

	/* sorry, fprintf(read_only_file, "") returns EOF, not 0 */
	if (cantwrite (data, fp)) {
 8048cd1:	a8 08                	test   $0x8,%al
 8048cd3:	0f 84 4b 05 00 00    	je     8049224 <_vfprintf_r+0x5b8>
 8048cd9:	8b 94 24 64 01 00 00 	mov    0x164(%esp),%edx
 8048ce0:	8b 5a 10             	mov    0x10(%edx),%ebx
 8048ce3:	85 db                	test   %ebx,%ebx
 8048ce5:	0f 84 39 05 00 00    	je     8049224 <_vfprintf_r+0x5b8>
		return (EOF);
	}

#ifdef _UNBUF_STREAM_OPT
	/* optimise fprintf(stderr) (and other unbuffered Unix files) */
	if ((fp->_flags & (__SNBF|__SWR|__SRW)) == (__SNBF|__SWR) &&
 8048ceb:	83 e0 1a             	and    $0x1a,%eax
 8048cee:	66 83 f8 0a          	cmp    $0xa,%ax
 8048cf2:	0f 84 65 05 00 00    	je     804925d <_vfprintf_r+0x5f1>
        }
#endif /* STRING_ONLY */

	fmt = (char *)fmt0;
#ifdef _FVWRITE_IN_STREAMIO
	uio.uio_iov = iovp = iov;
 8048cf8:	8d 9c 24 00 01 00 00 	lea    0x100(%esp),%ebx
 8048cff:	89 5c 24 44          	mov    %ebx,0x44(%esp)
 8048d03:	89 9c 24 cc 00 00 00 	mov    %ebx,0xcc(%esp)
	uio.uio_resid = 0;
 8048d0a:	c7 84 24 d4 00 00 00 	movl   $0x0,0xd4(%esp)
 8048d11:	00 00 00 00 
	uio.uio_iovcnt = 0;
 8048d15:	c7 84 24 d0 00 00 00 	movl   $0x0,0xd0(%esp)
 8048d1c:	00 00 00 00 
		}
		fp->_bf._size = 64;
        }
#endif /* STRING_ONLY */

	fmt = (char *)fmt0;
 8048d20:	8b 9c 24 68 01 00 00 	mov    0x168(%esp),%ebx
	int expsize = 0;	/* character count for expstr */
	char expstr[MAXEXPLEN];	/* buffer for exponent string */
	int lead;		/* sig figs before decimal or group sep */
#endif /* FLOATING_POINT */
#if defined (FLOATING_POINT) || defined (_WANT_IO_C99_FORMATS)
	int ndig = 0;		/* actual number of digits returned by cvt */
 8048d27:	c7 44 24 70 00 00 00 	movl   $0x0,0x70(%esp)
 8048d2e:	00 
#endif
#ifdef FLOATING_POINT
	char *decimal_point = _localeconv_r (data)->decimal_point;
	size_t decp_len = strlen (decimal_point);
	char softsign;		/* temporary negative sign for floats */
	union { int i; _PRINTF_FLOAT_TYPE fp; } _double_ = {0};
 8048d2f:	d9 ee                	fldz   
 8048d31:	dd 9c 24 80 00 00 00 	fstpl  0x80(%esp)
        }
#endif /* STRING_ONLY */

	fmt = (char *)fmt0;
#ifdef _FVWRITE_IN_STREAMIO
	uio.uio_iov = iovp = iov;
 8048d38:	8d bc 24 00 01 00 00 	lea    0x100(%esp),%edi
	u_quad_t _uquad;	/* integer arguments %[diouxX] */
	enum { OCT, DEC, HEX } base;/* base for [diouxX] conversion */
	int dprec;		/* a copy of prec if [diouxX], 0 otherwise */
	int realsz;		/* field size expanded by dprec */
	int size;		/* size of converted field or string */
	char *xdigs = NULL;	/* digits for [xX] conversion */
 8048d3f:	c7 84 24 8c 00 00 00 	movl   $0x0,0x8c(%esp)
 8048d46:	00 00 00 00 
	size_t decp_len = strlen (decimal_point);
	char softsign;		/* temporary negative sign for floats */
	union { int i; _PRINTF_FLOAT_TYPE fp; } _double_ = {0};
# define _fpvalue (_double_.fp)
	int expt;		/* integer value of exponent */
	int expsize = 0;	/* character count for expstr */
 8048d4a:	c7 84 24 88 00 00 00 	movl   $0x0,0x88(%esp)
 8048d51:	00 00 00 00 
#ifdef _FVWRITE_IN_STREAMIO
	uio.uio_iov = iovp = iov;
	uio.uio_resid = 0;
	uio.uio_iovcnt = 0;
#endif
	ret = 0;
 8048d55:	c7 44 24 54 00 00 00 	movl   $0x0,0x54(%esp)
 8048d5c:	00 
			*
			* To demonstrate this case, compile and run:
                        *    printf ("%#.0o",0);
			*/
                       else if (base == OCT && (flags & ALT))
                         *--cp = '0';
 8048d5d:	8d 8c 24 ff 00 00 00 	lea    0xff(%esp),%ecx
 8048d64:	89 4c 24 40          	mov    %ecx,0x40(%esp)
 8048d68:	89 f8                	mov    %edi,%eax
 8048d6a:	29 c8                	sub    %ecx,%eax
 8048d6c:	89 84 24 94 00 00 00 	mov    %eax,0x94(%esp)
                    else if (wc == '%')
                        break;
                    fmt += n;
		}
#else
                while (*fmt != '\0' && *fmt != '%')
 8048d73:	8a 03                	mov    (%ebx),%al
 8048d75:	89 de                	mov    %ebx,%esi
 8048d77:	84 c0                	test   %al,%al
 8048d79:	74 47                	je     8048dc2 <_vfprintf_r+0x156>
 8048d7b:	3c 25                	cmp    $0x25,%al
 8048d7d:	75 09                	jne    8048d88 <_vfprintf_r+0x11c>
 8048d7f:	eb 41                	jmp    8048dc2 <_vfprintf_r+0x156>
 8048d81:	8d 76 00             	lea    0x0(%esi),%esi
 8048d84:	3c 25                	cmp    $0x25,%al
 8048d86:	74 07                	je     8048d8f <_vfprintf_r+0x123>
                    fmt += 1;
 8048d88:	46                   	inc    %esi
                    else if (wc == '%')
                        break;
                    fmt += n;
		}
#else
                while (*fmt != '\0' && *fmt != '%')
 8048d89:	8a 06                	mov    (%esi),%al
 8048d8b:	84 c0                	test   %al,%al
 8048d8d:	75 f5                	jne    8048d84 <_vfprintf_r+0x118>
 8048d8f:	89 f5                	mov    %esi,%ebp
 8048d91:	29 dd                	sub    %ebx,%ebp
                    fmt += 1;
#endif
		if ((m = fmt - cp) != 0) {
 8048d93:	85 ed                	test   %ebp,%ebp
 8048d95:	74 2b                	je     8048dc2 <_vfprintf_r+0x156>
			PRINT (cp, m);
 8048d97:	89 1f                	mov    %ebx,(%edi)
 8048d99:	89 6f 04             	mov    %ebp,0x4(%edi)
 8048d9c:	01 ac 24 d4 00 00 00 	add    %ebp,0xd4(%esp)
 8048da3:	8b 94 24 d0 00 00 00 	mov    0xd0(%esp),%edx
 8048daa:	42                   	inc    %edx
 8048dab:	89 94 24 d0 00 00 00 	mov    %edx,0xd0(%esp)
 8048db2:	83 fa 07             	cmp    $0x7,%edx
 8048db5:	0f 8f 39 05 00 00    	jg     80492f4 <_vfprintf_r+0x688>
 8048dbb:	83 c7 08             	add    $0x8,%edi
			ret += m;
 8048dbe:	01 6c 24 54          	add    %ebp,0x54(%esp)
		}
#ifdef _MB_CAPABLE
		if (n <= 0)
                    goto done;
#else
                if (*fmt == '\0')
 8048dc2:	80 3e 00             	cmpb   $0x0,(%esi)
 8048dc5:	0f 84 d4 04 00 00    	je     804929f <_vfprintf_r+0x633>
                    goto done;
#endif
		fmt_anchor = fmt;
		fmt++;		/* skip over '%' */
 8048dcb:	8d 5e 01             	lea    0x1(%esi),%ebx

		flags = 0;
		dprec = 0;
		width = 0;
		prec = -1;
		sign = '\0';
 8048dce:	c6 84 24 ad 00 00 00 	movb   $0x0,0xad(%esp)
 8048dd5:	00 
 8048dd6:	31 c9                	xor    %ecx,%ecx
		fmt++;		/* skip over '%' */

		flags = 0;
		dprec = 0;
		width = 0;
		prec = -1;
 8048dd8:	bd ff ff ff ff       	mov    $0xffffffff,%ebp
		fmt_anchor = fmt;
		fmt++;		/* skip over '%' */

		flags = 0;
		dprec = 0;
		width = 0;
 8048ddd:	c7 44 24 5c 00 00 00 	movl   $0x0,0x5c(%esp)
 8048de4:	00 
                    goto done;
#endif
		fmt_anchor = fmt;
		fmt++;		/* skip over '%' */

		flags = 0;
 8048de5:	c7 44 24 48 00 00 00 	movl   $0x0,0x48(%esp)
 8048dec:	00 
#ifndef _NO_POS_ARGS
		N = arg_index;
		is_pos_arg = 0;
#endif

rflag:		ch = *fmt++;
 8048ded:	0f be 03             	movsbl (%ebx),%eax
 8048df0:	43                   	inc    %ebx
reswitch:	switch (ch) {
 8048df1:	8d 50 e0             	lea    -0x20(%eax),%edx
 8048df4:	83 fa 58             	cmp    $0x58,%edx
 8048df7:	0f 86 ff 03 00 00    	jbe    80491fc <_vfprintf_r+0x590>
 8048dfd:	89 44 24 68          	mov    %eax,0x68(%esp)
 8048e01:	88 8c 24 ad 00 00 00 	mov    %cl,0xad(%esp)

			size = buf + BUF - cp;
		skipsize:
			break;
		default:	/* "%?" prints ?, unless ? is NUL */
			if (ch == '\0')
 8048e08:	85 c0                	test   %eax,%eax
 8048e0a:	0f 84 8f 04 00 00    	je     804929f <_vfprintf_r+0x633>
				goto done;
			/* pretend it was %c with argument ch */
			cp = buf;
			*cp = ch;
 8048e10:	88 84 24 d8 00 00 00 	mov    %al,0xd8(%esp)
			size = 1;
			sign = '\0';
 8048e17:	c6 84 24 ad 00 00 00 	movb   $0x0,0xad(%esp)
 8048e1e:	00 
			break;
 8048e1f:	31 f6                	xor    %esi,%esi
 8048e21:	c7 44 24 4c 01 00 00 	movl   $0x1,0x4c(%esp)
 8048e28:	00 
			if (ch == '\0')
				goto done;
			/* pretend it was %c with argument ch */
			cp = buf;
			*cp = ch;
			size = 1;
 8048e29:	c7 44 24 50 01 00 00 	movl   $0x1,0x50(%esp)
 8048e30:	00 
#endif
		fmt_anchor = fmt;
		fmt++;		/* skip over '%' */

		flags = 0;
		dprec = 0;
 8048e31:	c7 44 24 6c 00 00 00 	movl   $0x0,0x6c(%esp)
 8048e38:	00 
		width = 0;
		prec = -1;
		sign = '\0';
#ifdef FLOATING_POINT
		lead = 0;
 8048e39:	c7 44 24 78 00 00 00 	movl   $0x0,0x78(%esp)
 8048e40:	00 
			break;
		default:	/* "%?" prints ?, unless ? is NUL */
			if (ch == '\0')
				goto done;
			/* pretend it was %c with argument ch */
			cp = buf;
 8048e41:	8d 84 24 d8 00 00 00 	lea    0xd8(%esp),%eax
 8048e48:	89 44 24 60          	mov    %eax,0x60(%esp)
		 * size excludes decimal prec; realsz includes it.
		 */
		realsz = dprec > size ? dprec : size;
		if (sign)
			realsz++;
		if (flags & HEXPREFIX)
 8048e4c:	8b 4c 24 48          	mov    0x48(%esp),%ecx
 8048e50:	83 e1 02             	and    $0x2,%ecx
 8048e53:	89 4c 24 58          	mov    %ecx,0x58(%esp)
 8048e57:	74 05                	je     8048e5e <_vfprintf_r+0x1f2>
			realsz+= 2;
 8048e59:	83 44 24 4c 02       	addl   $0x2,0x4c(%esp)

		/* right-adjusting blank padding */
		if ((flags & (LADJUST|ZEROPAD)) == 0)
 8048e5e:	8b 4c 24 48          	mov    0x48(%esp),%ecx
 8048e62:	81 e1 84 00 00 00    	and    $0x84,%ecx
 8048e68:	89 4c 24 64          	mov    %ecx,0x64(%esp)
 8048e6c:	0f 85 d2 00 00 00    	jne    8048f44 <_vfprintf_r+0x2d8>
			PAD (width - realsz, blanks);
 8048e72:	8b 6c 24 5c          	mov    0x5c(%esp),%ebp
 8048e76:	2b 6c 24 4c          	sub    0x4c(%esp),%ebp
 8048e7a:	85 ed                	test   %ebp,%ebp
 8048e7c:	0f 8e c2 00 00 00    	jle    8048f44 <_vfprintf_r+0x2d8>
 8048e82:	8b 94 24 d0 00 00 00 	mov    0xd0(%esp),%edx
 8048e89:	83 fd 10             	cmp    $0x10,%ebp
 8048e8c:	0f 8e 86 00 00 00    	jle    8048f18 <_vfprintf_r+0x2ac>
 8048e92:	8d b4 24 cc 00 00 00 	lea    0xcc(%esp),%esi
 8048e99:	89 9c 24 90 00 00 00 	mov    %ebx,0x90(%esp)
 8048ea0:	89 f8                	mov    %edi,%eax
 8048ea2:	8b 9c 24 60 01 00 00 	mov    0x160(%esp),%ebx
 8048ea9:	8b bc 24 64 01 00 00 	mov    0x164(%esp),%edi
 8048eb0:	eb 0d                	jmp    8048ebf <_vfprintf_r+0x253>
 8048eb2:	66 90                	xchg   %ax,%ax
 8048eb4:	83 c0 08             	add    $0x8,%eax
 8048eb7:	83 ed 10             	sub    $0x10,%ebp
 8048eba:	83 fd 10             	cmp    $0x10,%ebp
 8048ebd:	7e 50                	jle    8048f0f <_vfprintf_r+0x2a3>
 8048ebf:	c7 00 34 18 05 08    	movl   $0x8051834,(%eax)
 8048ec5:	c7 40 04 10 00 00 00 	movl   $0x10,0x4(%eax)
 8048ecc:	83 84 24 d4 00 00 00 	addl   $0x10,0xd4(%esp)
 8048ed3:	10 
 8048ed4:	42                   	inc    %edx
 8048ed5:	89 94 24 d0 00 00 00 	mov    %edx,0xd0(%esp)
 8048edc:	83 fa 07             	cmp    $0x7,%edx
 8048edf:	7e d3                	jle    8048eb4 <_vfprintf_r+0x248>
 8048ee1:	89 74 24 08          	mov    %esi,0x8(%esp)
 8048ee5:	89 7c 24 04          	mov    %edi,0x4(%esp)
 8048ee9:	89 1c 24             	mov    %ebx,(%esp)
 8048eec:	e8 fb 63 00 00       	call   804f2ec <__sprint_r>
 8048ef1:	85 c0                	test   %eax,%eax
 8048ef3:	0f 85 d7 03 00 00    	jne    80492d0 <_vfprintf_r+0x664>
 8048ef9:	8d 84 24 00 01 00 00 	lea    0x100(%esp),%eax
 8048f00:	8b 94 24 d0 00 00 00 	mov    0xd0(%esp),%edx
 8048f07:	83 ed 10             	sub    $0x10,%ebp
 8048f0a:	83 fd 10             	cmp    $0x10,%ebp
 8048f0d:	7f b0                	jg     8048ebf <_vfprintf_r+0x253>
 8048f0f:	8b 9c 24 90 00 00 00 	mov    0x90(%esp),%ebx
 8048f16:	89 c7                	mov    %eax,%edi
 8048f18:	c7 07 34 18 05 08    	movl   $0x8051834,(%edi)
 8048f1e:	89 6f 04             	mov    %ebp,0x4(%edi)
 8048f21:	01 ac 24 d4 00 00 00 	add    %ebp,0xd4(%esp)
 8048f28:	42                   	inc    %edx
 8048f29:	89 94 24 d0 00 00 00 	mov    %edx,0xd0(%esp)
 8048f30:	83 fa 07             	cmp    $0x7,%edx
 8048f33:	0f 8f 38 0f 00 00    	jg     8049e71 <_vfprintf_r+0x1205>
 8048f39:	83 c7 08             	add    $0x8,%edi
 8048f3c:	0f b6 b4 24 ad 00 00 	movzbl 0xad(%esp),%esi
 8048f43:	00 

		/* prefix */
		if (sign)
 8048f44:	89 f2                	mov    %esi,%edx
 8048f46:	84 d2                	test   %dl,%dl
 8048f48:	74 32                	je     8048f7c <_vfprintf_r+0x310>
			PRINT (&sign, 1);
 8048f4a:	8d 84 24 ad 00 00 00 	lea    0xad(%esp),%eax
 8048f51:	89 07                	mov    %eax,(%edi)
 8048f53:	c7 47 04 01 00 00 00 	movl   $0x1,0x4(%edi)
 8048f5a:	ff 84 24 d4 00 00 00 	incl   0xd4(%esp)
 8048f61:	8b 94 24 d0 00 00 00 	mov    0xd0(%esp),%edx
 8048f68:	42                   	inc    %edx
 8048f69:	89 94 24 d0 00 00 00 	mov    %edx,0xd0(%esp)
 8048f70:	83 fa 07             	cmp    $0x7,%edx
 8048f73:	0f 8f e7 0c 00 00    	jg     8049c60 <_vfprintf_r+0xff4>
 8048f79:	83 c7 08             	add    $0x8,%edi
		if (flags & HEXPREFIX)
 8048f7c:	8b 4c 24 58          	mov    0x58(%esp),%ecx
 8048f80:	85 c9                	test   %ecx,%ecx
 8048f82:	74 33                	je     8048fb7 <_vfprintf_r+0x34b>
			PRINT (ox, 2);
 8048f84:	8d 84 24 ae 00 00 00 	lea    0xae(%esp),%eax
 8048f8b:	89 07                	mov    %eax,(%edi)
 8048f8d:	c7 47 04 02 00 00 00 	movl   $0x2,0x4(%edi)
 8048f94:	83 84 24 d4 00 00 00 	addl   $0x2,0xd4(%esp)
 8048f9b:	02 
 8048f9c:	8b 94 24 d0 00 00 00 	mov    0xd0(%esp),%edx
 8048fa3:	42                   	inc    %edx
 8048fa4:	89 94 24 d0 00 00 00 	mov    %edx,0xd0(%esp)
 8048fab:	83 fa 07             	cmp    $0x7,%edx
 8048fae:	0f 8f e8 0c 00 00    	jg     8049c9c <_vfprintf_r+0x1030>
 8048fb4:	83 c7 08             	add    $0x8,%edi

		/* right-adjusting zero padding */
		if ((flags & (LADJUST|ZEROPAD)) == ZEROPAD)
 8048fb7:	81 7c 24 64 80 00 00 	cmpl   $0x80,0x64(%esp)
 8048fbe:	00 
 8048fbf:	0f 84 47 0a 00 00    	je     8049a0c <_vfprintf_r+0xda0>
			PAD (width - realsz, zeroes);

		/* leading zeroes from decimal precision */
		PAD (dprec - size, zeroes);
 8048fc5:	8b 6c 24 6c          	mov    0x6c(%esp),%ebp
 8048fc9:	2b 6c 24 50          	sub    0x50(%esp),%ebp
 8048fcd:	85 ed                	test   %ebp,%ebp
 8048fcf:	0f 8e b4 00 00 00    	jle    8049089 <_vfprintf_r+0x41d>
 8048fd5:	8b 94 24 d0 00 00 00 	mov    0xd0(%esp),%edx
 8048fdc:	83 fd 10             	cmp    $0x10,%ebp
 8048fdf:	0f 8e 80 00 00 00    	jle    8049065 <_vfprintf_r+0x3f9>
 8048fe5:	8d b4 24 cc 00 00 00 	lea    0xcc(%esp),%esi
 8048fec:	89 5c 24 58          	mov    %ebx,0x58(%esp)
 8048ff0:	89 f8                	mov    %edi,%eax
 8048ff2:	8b 9c 24 60 01 00 00 	mov    0x160(%esp),%ebx
 8048ff9:	8b bc 24 64 01 00 00 	mov    0x164(%esp),%edi
 8049000:	eb 0d                	jmp    804900f <_vfprintf_r+0x3a3>
 8049002:	66 90                	xchg   %ax,%ax
 8049004:	83 c0 08             	add    $0x8,%eax
 8049007:	83 ed 10             	sub    $0x10,%ebp
 804900a:	83 fd 10             	cmp    $0x10,%ebp
 804900d:	7e 50                	jle    804905f <_vfprintf_r+0x3f3>
 804900f:	c7 00 44 18 05 08    	movl   $0x8051844,(%eax)
 8049015:	c7 40 04 10 00 00 00 	movl   $0x10,0x4(%eax)
 804901c:	83 84 24 d4 00 00 00 	addl   $0x10,0xd4(%esp)
 8049023:	10 
 8049024:	42                   	inc    %edx
 8049025:	89 94 24 d0 00 00 00 	mov    %edx,0xd0(%esp)
 804902c:	83 fa 07             	cmp    $0x7,%edx
 804902f:	7e d3                	jle    8049004 <_vfprintf_r+0x398>
 8049031:	89 74 24 08          	mov    %esi,0x8(%esp)
 8049035:	89 7c 24 04          	mov    %edi,0x4(%esp)
 8049039:	89 1c 24             	mov    %ebx,(%esp)
 804903c:	e8 ab 62 00 00       	call   804f2ec <__sprint_r>
 8049041:	85 c0                	test   %eax,%eax
 8049043:	0f 85 87 02 00 00    	jne    80492d0 <_vfprintf_r+0x664>
 8049049:	8d 84 24 00 01 00 00 	lea    0x100(%esp),%eax
 8049050:	8b 94 24 d0 00 00 00 	mov    0xd0(%esp),%edx
 8049057:	83 ed 10             	sub    $0x10,%ebp
 804905a:	83 fd 10             	cmp    $0x10,%ebp
 804905d:	7f b0                	jg     804900f <_vfprintf_r+0x3a3>
 804905f:	8b 5c 24 58          	mov    0x58(%esp),%ebx
 8049063:	89 c7                	mov    %eax,%edi
 8049065:	c7 07 44 18 05 08    	movl   $0x8051844,(%edi)
 804906b:	89 6f 04             	mov    %ebp,0x4(%edi)
 804906e:	01 ac 24 d4 00 00 00 	add    %ebp,0xd4(%esp)
 8049075:	42                   	inc    %edx
 8049076:	89 94 24 d0 00 00 00 	mov    %edx,0xd0(%esp)
 804907d:	83 fa 07             	cmp    $0x7,%edx
 8049080:	0f 8f 9e 0b 00 00    	jg     8049c24 <_vfprintf_r+0xfb8>
 8049086:	83 c7 08             	add    $0x8,%edi

		/* the string or number proper */
#ifdef FLOATING_POINT
		if ((flags & FPT) == 0) {
 8049089:	f7 44 24 48 00 01 00 	testl  $0x100,0x48(%esp)
 8049090:	00 
 8049091:	0f 85 41 08 00 00    	jne    80498d8 <_vfprintf_r+0xc6c>
			PRINT (cp, size);
 8049097:	8b 44 24 60          	mov    0x60(%esp),%eax
 804909b:	89 07                	mov    %eax,(%edi)
 804909d:	8b 44 24 50          	mov    0x50(%esp),%eax
 80490a1:	89 47 04             	mov    %eax,0x4(%edi)
 80490a4:	01 84 24 d4 00 00 00 	add    %eax,0xd4(%esp)
 80490ab:	8b 94 24 d0 00 00 00 	mov    0xd0(%esp),%edx
 80490b2:	42                   	inc    %edx
 80490b3:	89 94 24 d0 00 00 00 	mov    %edx,0xd0(%esp)
 80490ba:	83 fa 07             	cmp    $0x7,%edx
 80490bd:	0f 8f f4 0a 00 00    	jg     8049bb7 <_vfprintf_r+0xf4b>
					} else	/* 0.[0..] */
						/* __dtoa irregularity */
						PAD (ndig - 1, zeroes);
				} else	/* XeYYY */
					PRINT (cp, 1);
				PRINT (expstr, expsize);
 80490c3:	83 c7 08             	add    $0x8,%edi
		}
#else /* !FLOATING_POINT */
		PRINT (cp, size);
#endif
		/* left-adjusting padding (always blank) */
		if (flags & LADJUST)
 80490c6:	f6 44 24 48 04       	testb  $0x4,0x48(%esp)
 80490cb:	0f 84 f3 00 00 00    	je     80491c4 <_vfprintf_r+0x558>
			PAD (width - realsz, blanks);
 80490d1:	8b 6c 24 5c          	mov    0x5c(%esp),%ebp
 80490d5:	2b 6c 24 4c          	sub    0x4c(%esp),%ebp
 80490d9:	85 ed                	test   %ebp,%ebp
 80490db:	0f 8e e3 00 00 00    	jle    80491c4 <_vfprintf_r+0x558>
 80490e1:	8b 94 24 d0 00 00 00 	mov    0xd0(%esp),%edx
 80490e8:	83 fd 10             	cmp    $0x10,%ebp
 80490eb:	0f 8e 80 00 00 00    	jle    8049171 <_vfprintf_r+0x505>
 80490f1:	8d b4 24 cc 00 00 00 	lea    0xcc(%esp),%esi
 80490f8:	89 5c 24 48          	mov    %ebx,0x48(%esp)
 80490fc:	89 f8                	mov    %edi,%eax
 80490fe:	8b 9c 24 60 01 00 00 	mov    0x160(%esp),%ebx
 8049105:	8b bc 24 64 01 00 00 	mov    0x164(%esp),%edi
 804910c:	eb 0d                	jmp    804911b <_vfprintf_r+0x4af>
 804910e:	66 90                	xchg   %ax,%ax
 8049110:	83 c0 08             	add    $0x8,%eax
 8049113:	83 ed 10             	sub    $0x10,%ebp
 8049116:	83 fd 10             	cmp    $0x10,%ebp
 8049119:	7e 50                	jle    804916b <_vfprintf_r+0x4ff>
 804911b:	c7 00 34 18 05 08    	movl   $0x8051834,(%eax)
 8049121:	c7 40 04 10 00 00 00 	movl   $0x10,0x4(%eax)
 8049128:	83 84 24 d4 00 00 00 	addl   $0x10,0xd4(%esp)
 804912f:	10 
 8049130:	42                   	inc    %edx
 8049131:	89 94 24 d0 00 00 00 	mov    %edx,0xd0(%esp)
 8049138:	83 fa 07             	cmp    $0x7,%edx
 804913b:	7e d3                	jle    8049110 <_vfprintf_r+0x4a4>
 804913d:	89 74 24 08          	mov    %esi,0x8(%esp)
 8049141:	89 7c 24 04          	mov    %edi,0x4(%esp)
 8049145:	89 1c 24             	mov    %ebx,(%esp)
 8049148:	e8 9f 61 00 00       	call   804f2ec <__sprint_r>
 804914d:	85 c0                	test   %eax,%eax
 804914f:	0f 85 7b 01 00 00    	jne    80492d0 <_vfprintf_r+0x664>
 8049155:	8d 84 24 00 01 00 00 	lea    0x100(%esp),%eax
 804915c:	8b 94 24 d0 00 00 00 	mov    0xd0(%esp),%edx
 8049163:	83 ed 10             	sub    $0x10,%ebp
 8049166:	83 fd 10             	cmp    $0x10,%ebp
 8049169:	7f b0                	jg     804911b <_vfprintf_r+0x4af>
 804916b:	8b 5c 24 48          	mov    0x48(%esp),%ebx
 804916f:	89 c7                	mov    %eax,%edi
 8049171:	c7 07 34 18 05 08    	movl   $0x8051834,(%edi)
 8049177:	89 6f 04             	mov    %ebp,0x4(%edi)
 804917a:	03 ac 24 d4 00 00 00 	add    0xd4(%esp),%ebp
 8049181:	89 ac 24 d4 00 00 00 	mov    %ebp,0xd4(%esp)
 8049188:	42                   	inc    %edx
 8049189:	89 94 24 d0 00 00 00 	mov    %edx,0xd0(%esp)
 8049190:	83 fa 07             	cmp    $0x7,%edx
 8049193:	7e 36                	jle    80491cb <_vfprintf_r+0x55f>
 8049195:	8d 84 24 cc 00 00 00 	lea    0xcc(%esp),%eax
 804919c:	89 44 24 08          	mov    %eax,0x8(%esp)
 80491a0:	8b 94 24 64 01 00 00 	mov    0x164(%esp),%edx
 80491a7:	89 54 24 04          	mov    %edx,0x4(%esp)
 80491ab:	8b 84 24 60 01 00 00 	mov    0x160(%esp),%eax
 80491b2:	89 04 24             	mov    %eax,(%esp)
 80491b5:	e8 32 61 00 00       	call   804f2ec <__sprint_r>
 80491ba:	85 c0                	test   %eax,%eax
 80491bc:	0f 85 0e 01 00 00    	jne    80492d0 <_vfprintf_r+0x664>
 80491c2:	66 90                	xchg   %ax,%ax
 80491c4:	8b ac 24 d4 00 00 00 	mov    0xd4(%esp),%ebp

		/* finally, adjust ret */
		ret += width > realsz ? width : realsz;
 80491cb:	8b 44 24 4c          	mov    0x4c(%esp),%eax
 80491cf:	3b 44 24 5c          	cmp    0x5c(%esp),%eax
 80491d3:	7d 04                	jge    80491d9 <_vfprintf_r+0x56d>
 80491d5:	8b 44 24 5c          	mov    0x5c(%esp),%eax
 80491d9:	01 44 24 54          	add    %eax,0x54(%esp)

		FLUSH ();	/* copy out the I/O vectors */
 80491dd:	85 ed                	test   %ebp,%ebp
 80491df:	0f 85 0b 0a 00 00    	jne    8049bf0 <_vfprintf_r+0xf84>
 80491e5:	c7 84 24 d0 00 00 00 	movl   $0x0,0xd0(%esp)
 80491ec:	00 00 00 00 
 80491f0:	8d bc 24 00 01 00 00 	lea    0x100(%esp),%edi
 80491f7:	e9 77 fb ff ff       	jmp    8048d73 <_vfprintf_r+0x107>
		N = arg_index;
		is_pos_arg = 0;
#endif

rflag:		ch = *fmt++;
reswitch:	switch (ch) {
 80491fc:	ff 24 95 d0 16 05 08 	jmp    *0x80516d0(,%edx,4)
			} else
#endif
				flags |= LONGINT;
			goto rflag;
		case 'q': /* extension */
			flags |= QUADINT;
 8049203:	83 4c 24 48 10       	orl    $0x10,0x48(%esp)
			goto rflag;
 8049208:	e9 e0 fb ff ff       	jmp    8048ded <_vfprintf_r+0x181>
#ifndef _NO_POS_ARGS
			is_pos_arg = old_is_pos_arg;
#endif
			if (width >= 0)
				goto rflag;
			width = -width;
 804920d:	f7 da                	neg    %edx
 804920f:	89 54 24 5c          	mov    %edx,0x5c(%esp)
			 * ``A negative field width argument is taken as a
			 * - flag followed by a positive field width.''
			 *	-- ANSI X3J11
			 * They don't exclude field widths read from args.
			 */
			width = GET_ARG (n, ap, int);
 8049213:	89 84 24 6c 01 00 00 	mov    %eax,0x16c(%esp)
			if (width >= 0)
				goto rflag;
			width = -width;
			/* FALLTHROUGH */
		case '-':
			flags |= LADJUST;
 804921a:	83 4c 24 48 04       	orl    $0x4,0x48(%esp)
			goto rflag;
 804921f:	e9 c9 fb ff ff       	jmp    8048ded <_vfprintf_r+0x181>
	_newlib_flockfile_start (fp);

	ORIENT(fp, -1);

	/* sorry, fprintf(read_only_file, "") returns EOF, not 0 */
	if (cantwrite (data, fp)) {
 8049224:	8b 94 24 64 01 00 00 	mov    0x164(%esp),%edx
 804922b:	89 54 24 04          	mov    %edx,0x4(%esp)
 804922f:	8b 84 24 60 01 00 00 	mov    0x160(%esp),%eax
 8049236:	89 04 24             	mov    %eax,(%esp)
 8049239:	e8 7a 1b 00 00       	call   804adb8 <__swsetup_r>
 804923e:	85 c0                	test   %eax,%eax
 8049240:	0f 85 97 00 00 00    	jne    80492dd <_vfprintf_r+0x671>
 8049246:	8b 94 24 64 01 00 00 	mov    0x164(%esp),%edx
 804924d:	8b 42 0c             	mov    0xc(%edx),%eax
		return (EOF);
	}

#ifdef _UNBUF_STREAM_OPT
	/* optimise fprintf(stderr) (and other unbuffered Unix files) */
	if ((fp->_flags & (__SNBF|__SWR|__SRW)) == (__SNBF|__SWR) &&
 8049250:	83 e0 1a             	and    $0x1a,%eax
 8049253:	66 83 f8 0a          	cmp    $0xa,%ax
 8049257:	0f 85 9b fa ff ff    	jne    8048cf8 <_vfprintf_r+0x8c>
 804925d:	8b 94 24 64 01 00 00 	mov    0x164(%esp),%edx
 8049264:	66 83 7a 0e 00       	cmpw   $0x0,0xe(%edx)
 8049269:	0f 88 89 fa ff ff    	js     8048cf8 <_vfprintf_r+0x8c>
	    fp->_file >= 0) {
		_newlib_flockfile_exit (fp);
		return (__sbprintf (data, fp, fmt0, ap));
 804926f:	8b 8c 24 6c 01 00 00 	mov    0x16c(%esp),%ecx
 8049276:	89 0c 24             	mov    %ecx,(%esp)
 8049279:	8b 8c 24 68 01 00 00 	mov    0x168(%esp),%ecx
 8049280:	8b 84 24 60 01 00 00 	mov    0x160(%esp),%eax
 8049287:	e8 4c 1a 00 00       	call   804acd8 <__sbprintf>
 804928c:	89 44 24 54          	mov    %eax,0x54(%esp)
#ifndef STRING_ONLY
	_newlib_flockfile_end (fp);
#endif
	return (__sferror (fp) ? EOF : ret);
	/* NOTREACHED */
}
 8049290:	8b 44 24 54          	mov    0x54(%esp),%eax
 8049294:	81 c4 4c 01 00 00    	add    $0x14c,%esp
 804929a:	5b                   	pop    %ebx
 804929b:	5e                   	pop    %esi
 804929c:	5f                   	pop    %edi
 804929d:	5d                   	pop    %ebp
 804929e:	c3                   	ret    
			_free_r (data, malloc_buf);
			malloc_buf = NULL;
		}
	}
done:
	FLUSH ();
 804929f:	8b 84 24 d4 00 00 00 	mov    0xd4(%esp),%eax
 80492a6:	85 c0                	test   %eax,%eax
 80492a8:	74 26                	je     80492d0 <_vfprintf_r+0x664>
 80492aa:	8d 84 24 cc 00 00 00 	lea    0xcc(%esp),%eax
 80492b1:	89 44 24 08          	mov    %eax,0x8(%esp)
 80492b5:	8b 94 24 64 01 00 00 	mov    0x164(%esp),%edx
 80492bc:	89 54 24 04          	mov    %edx,0x4(%esp)
 80492c0:	8b 84 24 60 01 00 00 	mov    0x160(%esp),%eax
 80492c7:	89 04 24             	mov    %eax,(%esp)
 80492ca:	e8 1d 60 00 00       	call   804f2ec <__sprint_r>
 80492cf:	90                   	nop
	if (malloc_buf != NULL)
		_free_r (data, malloc_buf);
#ifndef STRING_ONLY
	_newlib_flockfile_end (fp);
#endif
	return (__sferror (fp) ? EOF : ret);
 80492d0:	8b 94 24 64 01 00 00 	mov    0x164(%esp),%edx
 80492d7:	f6 42 0c 40          	testb  $0x40,0xc(%edx)
 80492db:	74 08                	je     80492e5 <_vfprintf_r+0x679>
	ORIENT(fp, -1);

	/* sorry, fprintf(read_only_file, "") returns EOF, not 0 */
	if (cantwrite (data, fp)) {
		_newlib_flockfile_exit (fp);
		return (EOF);
 80492dd:	c7 44 24 54 ff ff ff 	movl   $0xffffffff,0x54(%esp)
 80492e4:	ff 
#ifndef STRING_ONLY
	_newlib_flockfile_end (fp);
#endif
	return (__sferror (fp) ? EOF : ret);
	/* NOTREACHED */
}
 80492e5:	8b 44 24 54          	mov    0x54(%esp),%eax
 80492e9:	81 c4 4c 01 00 00    	add    $0x14c,%esp
 80492ef:	5b                   	pop    %ebx
 80492f0:	5e                   	pop    %esi
 80492f1:	5f                   	pop    %edi
 80492f2:	5d                   	pop    %ebp
 80492f3:	c3                   	ret    
#else
                while (*fmt != '\0' && *fmt != '%')
                    fmt += 1;
#endif
		if ((m = fmt - cp) != 0) {
			PRINT (cp, m);
 80492f4:	8d 84 24 cc 00 00 00 	lea    0xcc(%esp),%eax
 80492fb:	89 44 24 08          	mov    %eax,0x8(%esp)
 80492ff:	8b 94 24 64 01 00 00 	mov    0x164(%esp),%edx
 8049306:	89 54 24 04          	mov    %edx,0x4(%esp)
 804930a:	8b 84 24 60 01 00 00 	mov    0x160(%esp),%eax
 8049311:	89 04 24             	mov    %eax,(%esp)
 8049314:	e8 d3 5f 00 00       	call   804f2ec <__sprint_r>
 8049319:	85 c0                	test   %eax,%eax
 804931b:	75 b3                	jne    80492d0 <_vfprintf_r+0x664>
 804931d:	8d bc 24 00 01 00 00 	lea    0x100(%esp),%edi
 8049324:	e9 95 fa ff ff       	jmp    8048dbe <_vfprintf_r+0x152>
 8049329:	8d 76 00             	lea    0x0(%esi),%esi
	    (u_long)GET_ARG (N, ap, u_int))
#endif

#ifndef STRING_ONLY
	/* Initialize std streams if not dealing with sprintf family.  */
	CHECK_INIT (data, fp);
 804932c:	89 04 24             	mov    %eax,(%esp)
 804932f:	e8 30 35 00 00       	call   804c864 <__sinit>
 8049334:	e9 7b f9 ff ff       	jmp    8048cb4 <_vfprintf_r+0x48>
 8049339:	89 44 24 68          	mov    %eax,0x68(%esp)
			goto nosign;
		case 's':
#ifdef _WANT_IO_C99_FORMATS
		case 'S':
#endif
			cp = GET_ARG (N, ap, char_ptr_t);
 804933d:	8b 94 24 6c 01 00 00 	mov    0x16c(%esp),%edx
 8049344:	83 c2 04             	add    $0x4,%edx
 8049347:	8b 8c 24 6c 01 00 00 	mov    0x16c(%esp),%ecx
 804934e:	8b 09                	mov    (%ecx),%ecx
 8049350:	89 4c 24 60          	mov    %ecx,0x60(%esp)
#ifdef _GLIBC_EXTENSION
string:
#endif
			sign = '\0';
 8049354:	c6 84 24 ad 00 00 00 	movb   $0x0,0xad(%esp)
 804935b:	00 
#ifndef __OPTIMIZE_SIZE__
			/* Behavior is undefined if the user passed a
			   NULL string when precision is not 0.
			   However, if we are not optimizing for size,
			   we might as well mirror glibc behavior.  */
			if (cp == NULL) {
 804935c:	85 c9                	test   %ecx,%ecx
 804935e:	0f 84 34 15 00 00    	je     804a898 <_vfprintf_r+0x1c2c>
				}
				cp[size] = '\0';
			}
			else
#endif /* _MB_CAPABLE */
			if (prec >= 0) {
 8049364:	85 ed                	test   %ebp,%ebp
 8049366:	0f 88 b8 13 00 00    	js     804a724 <_vfprintf_r+0x1ab8>
				/*
				 * can't use strlen; can only look for the
				 * NUL in the first `prec' characters, and
				 * strlen () will go further.
				 */
				char *p = memchr (cp, 0, prec);
 804936c:	89 6c 24 08          	mov    %ebp,0x8(%esp)
 8049370:	c7 44 24 04 00 00 00 	movl   $0x0,0x4(%esp)
 8049377:	00 
 8049378:	8b 44 24 60          	mov    0x60(%esp),%eax
 804937c:	89 04 24             	mov    %eax,(%esp)
 804937f:	89 54 24 20          	mov    %edx,0x20(%esp)
 8049383:	e8 28 48 00 00       	call   804dbb0 <memchr>

				if (p != NULL) {
 8049388:	85 c0                	test   %eax,%eax
 804938a:	8b 54 24 20          	mov    0x20(%esp),%edx
 804938e:	0f 84 c9 04 00 00    	je     804985d <_vfprintf_r+0xbf1>
					size = p - cp;
 8049394:	2b 44 24 60          	sub    0x60(%esp),%eax
 8049398:	89 44 24 50          	mov    %eax,0x50(%esp)
					if (size > prec)
 804939c:	39 e8                	cmp    %ebp,%eax
 804939e:	0f 8f b9 04 00 00    	jg     804985d <_vfprintf_r+0xbf1>
 80493a4:	8b 44 24 50          	mov    0x50(%esp),%eax
 80493a8:	89 44 24 4c          	mov    %eax,0x4c(%esp)
 80493ac:	85 c0                	test   %eax,%eax
 80493ae:	0f 88 94 13 00 00    	js     804a748 <_vfprintf_r+0x1adc>
 80493b4:	0f b6 b4 24 ad 00 00 	movzbl 0xad(%esp),%esi
 80493bb:	00 
			goto nosign;
		case 's':
#ifdef _WANT_IO_C99_FORMATS
		case 'S':
#endif
			cp = GET_ARG (N, ap, char_ptr_t);
 80493bc:	89 94 24 6c 01 00 00 	mov    %edx,0x16c(%esp)
#endif
		fmt_anchor = fmt;
		fmt++;		/* skip over '%' */

		flags = 0;
		dprec = 0;
 80493c3:	c7 44 24 6c 00 00 00 	movl   $0x0,0x6c(%esp)
 80493ca:	00 
		width = 0;
		prec = -1;
		sign = '\0';
#ifdef FLOATING_POINT
		lead = 0;
 80493cb:	c7 44 24 78 00 00 00 	movl   $0x0,0x78(%esp)
 80493d2:	00 
 80493d3:	e9 b4 00 00 00       	jmp    804948c <_vfprintf_r+0x820>
			 * of printable characters, in an implementation-
			 * defined manner.''
			 *	-- ANSI X3J11
			 */
			/* NOSTRICT */
			_uquad = (uintptr_t) GET_ARG (N, ap, void_ptr_t);
 80493d8:	8b 84 24 6c 01 00 00 	mov    0x16c(%esp),%eax
 80493df:	8b 08                	mov    (%eax),%ecx
			base = HEX;
			xdigs = "0123456789abcdef";
			flags |= HEXPREFIX;
 80493e1:	83 4c 24 48 02       	orl    $0x2,0x48(%esp)
			ox[0] = '0';
 80493e6:	c6 84 24 ae 00 00 00 	movb   $0x30,0xae(%esp)
 80493ed:	30 
			ox[1] = ch = 'x';
 80493ee:	c6 84 24 af 00 00 00 	movb   $0x78,0xaf(%esp)
 80493f5:	78 
			 * of printable characters, in an implementation-
			 * defined manner.''
			 *	-- ANSI X3J11
			 */
			/* NOSTRICT */
			_uquad = (uintptr_t) GET_ARG (N, ap, void_ptr_t);
 80493f6:	83 c0 04             	add    $0x4,%eax
 80493f9:	89 84 24 6c 01 00 00 	mov    %eax,0x16c(%esp)
			base = HEX;
			xdigs = "0123456789abcdef";
 8049400:	c7 84 24 8c 00 00 00 	movl   $0x80516b5,0x8c(%esp)
 8049407:	b5 16 05 08 
			 * defined manner.''
			 *	-- ANSI X3J11
			 */
			/* NOSTRICT */
			_uquad = (uintptr_t) GET_ARG (N, ap, void_ptr_t);
			base = HEX;
 804940b:	b0 02                	mov    $0x2,%al
			xdigs = "0123456789abcdef";
			flags |= HEXPREFIX;
			ox[0] = '0';
			ox[1] = ch = 'x';
 804940d:	c7 44 24 68 78 00 00 	movl   $0x78,0x68(%esp)
 8049414:	00 
 8049415:	8d 76 00             	lea    0x0(%esi),%esi

#ifdef _WANT_IO_C99_FORMATS
			flags &= ~GROUPING;
#endif
			/* unsigned conversions */
nosign:			sign = '\0';
 8049418:	c6 84 24 ad 00 00 00 	movb   $0x0,0xad(%esp)
 804941f:	00 
 8049420:	31 f6                	xor    %esi,%esi
			/*
			 * ``... diouXx conversions ... if a precision is
			 * specified, the 0 flag will be ignored.''
			 *	-- ANSI X3J11
			 */
number:			if ((dprec = prec) >= 0)
 8049422:	85 ed                	test   %ebp,%ebp
 8049424:	78 08                	js     804942e <_vfprintf_r+0x7c2>
				flags &= ~ZEROPAD;
 8049426:	81 64 24 48 7f ff ff 	andl   $0xffffff7f,0x48(%esp)
 804942d:	ff 
			 * ``The result of converting a zero value with an
			 * explicit precision of zero is no characters.''
			 *	-- ANSI X3J11
			 */
			cp = buf + BUF;
			if (_uquad != 0 || prec != 0) {
 804942e:	85 c9                	test   %ecx,%ecx
 8049430:	0f 85 56 04 00 00    	jne    804988c <_vfprintf_r+0xc20>
 8049436:	85 ed                	test   %ebp,%ebp
 8049438:	0f 85 4e 04 00 00    	jne    804988c <_vfprintf_r+0xc20>
			*     -- ANSI X3J11
			*
			* To demonstrate this case, compile and run:
                        *    printf ("%#.0o",0);
			*/
                       else if (base == OCT && (flags & ALT))
 804943e:	84 c0                	test   %al,%al
 8049440:	0f 85 f6 08 00 00    	jne    8049d3c <_vfprintf_r+0x10d0>
 8049446:	f6 44 24 48 01       	testb  $0x1,0x48(%esp)
 804944b:	0f 84 eb 08 00 00    	je     8049d3c <_vfprintf_r+0x10d0>
                         *--cp = '0';
 8049451:	c6 84 24 ff 00 00 00 	movb   $0x30,0xff(%esp)
 8049458:	30 
 8049459:	8b 8c 24 94 00 00 00 	mov    0x94(%esp),%ecx
 8049460:	89 4c 24 50          	mov    %ecx,0x50(%esp)
 8049464:	8d 84 24 ff 00 00 00 	lea    0xff(%esp),%eax
 804946b:	89 44 24 60          	mov    %eax,0x60(%esp)
 804946f:	90                   	nop
 8049470:	8b 44 24 50          	mov    0x50(%esp),%eax
 8049474:	89 44 24 4c          	mov    %eax,0x4c(%esp)
 8049478:	39 e8                	cmp    %ebp,%eax
 804947a:	7d 04                	jge    8049480 <_vfprintf_r+0x814>
 804947c:	89 6c 24 4c          	mov    %ebp,0x4c(%esp)
		dprec = 0;
		width = 0;
		prec = -1;
		sign = '\0';
#ifdef FLOATING_POINT
		lead = 0;
 8049480:	89 6c 24 6c          	mov    %ebp,0x6c(%esp)
 8049484:	c7 44 24 78 00 00 00 	movl   $0x0,0x78(%esp)
 804948b:	00 
		 *
		 * Compute actual size, so we know how much to pad.
		 * size excludes decimal prec; realsz includes it.
		 */
		realsz = dprec > size ? dprec : size;
		if (sign)
 804948c:	89 f2                	mov    %esi,%edx
 804948e:	84 d2                	test   %dl,%dl
 8049490:	0f 84 b6 f9 ff ff    	je     8048e4c <_vfprintf_r+0x1e0>
			realsz++;
 8049496:	ff 44 24 4c          	incl   0x4c(%esp)
 804949a:	e9 ad f9 ff ff       	jmp    8048e4c <_vfprintf_r+0x1e0>
			/*
			 * ``If the space and + flags both appear, the space
			 * flag will be ignored.''
			 *	-- ANSI X3J11
			 */
			if (!sign)
 804949f:	84 c9                	test   %cl,%cl
 80494a1:	0f 85 46 f9 ff ff    	jne    8048ded <_vfprintf_r+0x181>
				sign = ' ';
 80494a7:	b1 20                	mov    $0x20,%cl
 80494a9:	e9 3f f9 ff ff       	jmp    8048ded <_vfprintf_r+0x181>
			goto rflag;
		case '#':
			flags |= ALT;
 80494ae:	83 4c 24 48 01       	orl    $0x1,0x48(%esp)
			goto rflag;
 80494b3:	e9 35 f9 ff ff       	jmp    8048ded <_vfprintf_r+0x181>
			 * ``A negative field width argument is taken as a
			 * - flag followed by a positive field width.''
			 *	-- ANSI X3J11
			 * They don't exclude field widths read from args.
			 */
			width = GET_ARG (n, ap, int);
 80494b8:	8b 84 24 6c 01 00 00 	mov    0x16c(%esp),%eax
 80494bf:	83 c0 04             	add    $0x4,%eax
 80494c2:	8b 94 24 6c 01 00 00 	mov    0x16c(%esp),%edx
 80494c9:	8b 12                	mov    (%edx),%edx
 80494cb:	89 54 24 5c          	mov    %edx,0x5c(%esp)
#ifndef _NO_POS_ARGS
			is_pos_arg = old_is_pos_arg;
#endif
			if (width >= 0)
 80494cf:	85 d2                	test   %edx,%edx
 80494d1:	0f 88 36 fd ff ff    	js     804920d <_vfprintf_r+0x5a1>
						fmt = old_fmt;
						goto rflag;
					}
				}
#endif /* !_NO_POS_ARGS */
				prec = GET_ARG (n, ap, int);
 80494d7:	89 84 24 6c 01 00 00 	mov    %eax,0x16c(%esp)
 80494de:	e9 0a f9 ff ff       	jmp    8048ded <_vfprintf_r+0x181>
			/* FALLTHROUGH */
		case '-':
			flags |= LADJUST;
			goto rflag;
		case '+':
			sign = '+';
 80494e3:	b1 2b                	mov    $0x2b,%cl
 80494e5:	e9 03 f9 ff ff       	jmp    8048ded <_vfprintf_r+0x181>
			if (*fmt == 'h') {
				fmt++;
				flags |= CHARINT;
			} else
#endif
				flags |= SHORTINT;
 80494ea:	83 4c 24 48 40       	orl    $0x40,0x48(%esp)
			goto rflag;
 80494ef:	e9 f9 f8 ff ff       	jmp    8048ded <_vfprintf_r+0x181>
 80494f4:	89 44 24 68          	mov    %eax,0x68(%esp)
 80494f8:	88 8c 24 ad 00 00 00 	mov    %cl,0xad(%esp)
			goto nosign;
		case 'X':
			xdigs = "0123456789ABCDEF";
			goto hex;
		case 'x':
			xdigs = "0123456789abcdef";
 80494ff:	c7 84 24 8c 00 00 00 	movl   $0x80516b5,0x8c(%esp)
 8049506:	b5 16 05 08 
hex:			_uquad = UARG ();
 804950a:	f6 44 24 48 10       	testb  $0x10,0x48(%esp)
 804950f:	0f 84 1b 02 00 00    	je     8049730 <_vfprintf_r+0xac4>
 8049515:	8b 84 24 6c 01 00 00 	mov    0x16c(%esp),%eax
 804951c:	8b 08                	mov    (%eax),%ecx
 804951e:	83 c0 04             	add    $0x4,%eax
 8049521:	89 84 24 6c 01 00 00 	mov    %eax,0x16c(%esp)
			base = HEX;
			/* leading 0x/X only if non-zero */
			if (flags & ALT && _uquad != 0) {
 8049528:	f6 44 24 48 01       	testb  $0x1,0x48(%esp)
 804952d:	0f 84 21 08 00 00    	je     8049d54 <_vfprintf_r+0x10e8>
 8049533:	85 c9                	test   %ecx,%ecx
 8049535:	0f 84 19 08 00 00    	je     8049d54 <_vfprintf_r+0x10e8>
				ox[0] = '0';
 804953b:	c6 84 24 ae 00 00 00 	movb   $0x30,0xae(%esp)
 8049542:	30 
				ox[1] = ch;
 8049543:	8a 44 24 68          	mov    0x68(%esp),%al
 8049547:	88 84 24 af 00 00 00 	mov    %al,0xaf(%esp)
				flags |= HEXPREFIX;
 804954e:	83 4c 24 48 02       	orl    $0x2,0x48(%esp)
			xdigs = "0123456789ABCDEF";
			goto hex;
		case 'x':
			xdigs = "0123456789abcdef";
hex:			_uquad = UARG ();
			base = HEX;
 8049553:	b0 02                	mov    $0x2,%al
 8049555:	e9 be fe ff ff       	jmp    8049418 <_vfprintf_r+0x7ac>
 804955a:	88 8c 24 ad 00 00 00 	mov    %cl,0xad(%esp)
#ifndef _NO_LONGLONG
			if (flags & QUADINT)
				*GET_ARG (N, ap, quad_ptr_t) = ret;
			else
#endif
			if (flags & LONGINT)
 8049561:	f6 44 24 48 10       	testb  $0x10,0x48(%esp)
 8049566:	0f 85 d3 02 00 00    	jne    804983f <_vfprintf_r+0xbd3>
				*GET_ARG (N, ap, long_ptr_t) = ret;
			else if (flags & SHORTINT)
 804956c:	f6 44 24 48 40       	testb  $0x40,0x48(%esp)
 8049571:	0f 84 c8 02 00 00    	je     804983f <_vfprintf_r+0xbd3>
				*GET_ARG (N, ap, short_ptr_t) = ret;
 8049577:	8b 8c 24 6c 01 00 00 	mov    0x16c(%esp),%ecx
 804957e:	8b 01                	mov    (%ecx),%eax
 8049580:	8b 54 24 54          	mov    0x54(%esp),%edx
 8049584:	66 89 10             	mov    %dx,(%eax)
 8049587:	83 c1 04             	add    $0x4,%ecx
 804958a:	89 8c 24 6c 01 00 00 	mov    %ecx,0x16c(%esp)
 8049591:	e9 dd f7 ff ff       	jmp    8048d73 <_vfprintf_r+0x107>
 8049596:	89 44 24 68          	mov    %eax,0x68(%esp)
 804959a:	88 8c 24 ad 00 00 00 	mov    %cl,0xad(%esp)
				size = 1;
			}
			sign = '\0';
			break;
		case 'D':  /* extension */
			flags |= LONGINT;
 80495a1:	83 4c 24 48 10       	orl    $0x10,0x48(%esp)
			/*FALLTHROUGH*/
		case 'd':
		case 'i':
			_uquad = SARG ();
 80495a6:	f6 44 24 48 10       	testb  $0x10,0x48(%esp)
 80495ab:	0f 85 f4 01 00 00    	jne    80497a5 <_vfprintf_r+0xb39>
 80495b1:	f6 44 24 48 40       	testb  $0x40,0x48(%esp)
 80495b6:	0f 84 e9 01 00 00    	je     80497a5 <_vfprintf_r+0xb39>
 80495bc:	8b 84 24 6c 01 00 00 	mov    0x16c(%esp),%eax
 80495c3:	0f bf 08             	movswl (%eax),%ecx
 80495c6:	83 c0 04             	add    $0x4,%eax
 80495c9:	89 84 24 6c 01 00 00 	mov    %eax,0x16c(%esp)
#ifndef _NO_LONGLONG
			if ((quad_t)_uquad < 0)
#else
			if ((long) _uquad < 0)
 80495d0:	85 c9                	test   %ecx,%ecx
 80495d2:	0f 88 f1 0c 00 00    	js     804a2c9 <_vfprintf_r+0x165d>
 80495d8:	0f b6 b4 24 ad 00 00 	movzbl 0xad(%esp),%esi
 80495df:	00 
			{

				_uquad = -_uquad;
				sign = '-';
			}
			base = DEC;
 80495e0:	b0 01                	mov    $0x1,%al
 80495e2:	e9 3b fe ff ff       	jmp    8049422 <_vfprintf_r+0x7b6>
 80495e7:	89 44 24 68          	mov    %eax,0x68(%esp)
 80495eb:	88 8c 24 ad 00 00 00 	mov    %cl,0xad(%esp)
		case 'f':
		case 'g':
		case 'G':
# ifdef _NO_LONGDBL
			if (flags & LONGDBL) {
				_fpvalue = (double) GET_ARG (N, ap, _LONG_DOUBLE);
 80495f2:	8b 8c 24 6c 01 00 00 	mov    0x16c(%esp),%ecx
		case 'E':
		case 'f':
		case 'g':
		case 'G':
# ifdef _NO_LONGDBL
			if (flags & LONGDBL) {
 80495f9:	f6 44 24 48 08       	testb  $0x8,0x48(%esp)
 80495fe:	0f 84 8a 0e 00 00    	je     804a48e <_vfprintf_r+0x1822>
				_fpvalue = (double) GET_ARG (N, ap, _LONG_DOUBLE);
 8049604:	db 29                	fldt   (%ecx)
 8049606:	dd 9c 24 80 00 00 00 	fstpl  0x80(%esp)
 804960d:	83 c1 0c             	add    $0xc,%ecx
 8049610:	89 8c 24 6c 01 00 00 	mov    %ecx,0x16c(%esp)

			   If the output is infinite or NaN, leading
			   zeros are not permitted.  Otherwise, scanf
			   could not read what printf wrote.
			 */
			if (isinf (_fpvalue)) {
 8049617:	dd 84 24 80 00 00 00 	fldl   0x80(%esp)
 804961e:	dd 1c 24             	fstpl  (%esp)
 8049621:	e8 de 5a 00 00       	call   804f104 <__fpclassifyd>
 8049626:	48                   	dec    %eax
 8049627:	0f 85 b2 0c 00 00    	jne    804a2df <_vfprintf_r+0x1673>
				if (_fpvalue < 0)
 804962d:	d9 ee                	fldz   
 804962f:	dd 84 24 80 00 00 00 	fldl   0x80(%esp)
 8049636:	d9 c9                	fxch   %st(1)
 8049638:	da e9                	fucompp 
 804963a:	df e0                	fnstsw %ax
 804963c:	f6 c4 45             	test   $0x45,%ah
 804963f:	0f 84 c9 12 00 00    	je     804a90e <_vfprintf_r+0x1ca2>
 8049645:	0f b6 b4 24 ad 00 00 	movzbl 0xad(%esp),%esi
 804964c:	00 
					sign = '-';
				if (ch <= 'G') /* 'A', 'E', 'F', or 'G' */
 804964d:	83 7c 24 68 47       	cmpl   $0x47,0x68(%esp)
 8049652:	0f 8e 35 10 00 00    	jle    804a68d <_vfprintf_r+0x1a21>
					cp = "INF";
				else
					cp = "inf";
 8049658:	c7 44 24 60 98 16 05 	movl   $0x8051698,0x60(%esp)
 804965f:	08 
				size = 3;
				flags &= ~ZEROPAD;
 8049660:	81 64 24 48 7f ff ff 	andl   $0xffffff7f,0x48(%esp)
 8049667:	ff 
				break;
 8049668:	c7 44 24 4c 03 00 00 	movl   $0x3,0x4c(%esp)
 804966f:	00 
					sign = '-';
				if (ch <= 'G') /* 'A', 'E', 'F', or 'G' */
					cp = "INF";
				else
					cp = "inf";
				size = 3;
 8049670:	c7 44 24 50 03 00 00 	movl   $0x3,0x50(%esp)
 8049677:	00 
#endif
		fmt_anchor = fmt;
		fmt++;		/* skip over '%' */

		flags = 0;
		dprec = 0;
 8049678:	c7 44 24 6c 00 00 00 	movl   $0x0,0x6c(%esp)
 804967f:	00 
		width = 0;
		prec = -1;
		sign = '\0';
#ifdef FLOATING_POINT
		lead = 0;
 8049680:	c7 44 24 78 00 00 00 	movl   $0x0,0x78(%esp)
 8049687:	00 
					cp = "INF";
				else
					cp = "inf";
				size = 3;
				flags &= ~ZEROPAD;
				break;
 8049688:	e9 ff fd ff ff       	jmp    804948c <_vfprintf_r+0x820>
#endif /* !_NO_POS_ARGS */
			width = n;
			goto reswitch;
#ifdef FLOATING_POINT
		case 'L':
			flags |= LONGDBL;
 804968d:	83 4c 24 48 08       	orl    $0x8,0x48(%esp)
			goto rflag;
 8049692:	e9 56 f7 ff ff       	jmp    8048ded <_vfprintf_r+0x181>
 8049697:	89 44 24 68          	mov    %eax,0x68(%esp)
#endif
			else
				*GET_ARG (N, ap, int_ptr_t) = ret;
			continue;	/* no output */
		case 'O': /* extension */
			flags |= LONGINT;
 804969b:	83 4c 24 48 10       	orl    $0x10,0x48(%esp)
			/*FALLTHROUGH*/
		case 'o':
			_uquad = UARG ();
 80496a0:	f6 44 24 48 10       	testb  $0x10,0x48(%esp)
 80496a5:	0f 84 07 08 00 00    	je     8049eb2 <_vfprintf_r+0x1246>
 80496ab:	8b 84 24 6c 01 00 00 	mov    0x16c(%esp),%eax
 80496b2:	8b 08                	mov    (%eax),%ecx
 80496b4:	83 c0 04             	add    $0x4,%eax
 80496b7:	89 84 24 6c 01 00 00 	mov    %eax,0x16c(%esp)
			base = OCT;
 80496be:	31 c0                	xor    %eax,%eax
 80496c0:	e9 53 fd ff ff       	jmp    8049418 <_vfprintf_r+0x7ac>
 80496c5:	89 44 24 68          	mov    %eax,0x68(%esp)
			} else
				size = strlen (cp);

			break;
		case 'U': /* extension */
			flags |= LONGINT;
 80496c9:	83 4c 24 48 10       	orl    $0x10,0x48(%esp)
			/*FALLTHROUGH*/
		case 'u':
			_uquad = UARG ();
 80496ce:	f6 44 24 48 10       	testb  $0x10,0x48(%esp)
 80496d3:	0f 85 83 06 00 00    	jne    8049d5c <_vfprintf_r+0x10f0>
 80496d9:	f6 44 24 48 40       	testb  $0x40,0x48(%esp)
 80496de:	0f 84 78 06 00 00    	je     8049d5c <_vfprintf_r+0x10f0>
		if (!isa)
			*p++ = '0';
		*p++ = to_char (exp);
	}
	return (p - p0);
}
 80496e4:	8b 8c 24 6c 01 00 00 	mov    0x16c(%esp),%ecx
 80496eb:	8b 09                	mov    (%ecx),%ecx
 80496ed:	89 4c 24 38          	mov    %ecx,0x38(%esp)
 80496f1:	81 e1 ff ff 00 00    	and    $0xffff,%ecx
			break;
		case 'U': /* extension */
			flags |= LONGINT;
			/*FALLTHROUGH*/
		case 'u':
			_uquad = UARG ();
 80496f7:	8b 84 24 6c 01 00 00 	mov    0x16c(%esp),%eax
 80496fe:	83 c0 04             	add    $0x4,%eax
 8049701:	89 84 24 6c 01 00 00 	mov    %eax,0x16c(%esp)
			base = DEC;
 8049708:	b0 01                	mov    $0x1,%al
 804970a:	e9 09 fd ff ff       	jmp    8049418 <_vfprintf_r+0x7ac>
 804970f:	89 44 24 68          	mov    %eax,0x68(%esp)
 8049713:	88 8c 24 ad 00 00 00 	mov    %cl,0xad(%esp)
			goto nosign;
		case 'X':
			xdigs = "0123456789ABCDEF";
 804971a:	c7 84 24 8c 00 00 00 	movl   $0x80516a4,0x8c(%esp)
 8049721:	a4 16 05 08 
			goto hex;
		case 'x':
			xdigs = "0123456789abcdef";
hex:			_uquad = UARG ();
 8049725:	f6 44 24 48 10       	testb  $0x10,0x48(%esp)
 804972a:	0f 85 e5 fd ff ff    	jne    8049515 <_vfprintf_r+0x8a9>
 8049730:	f6 44 24 48 40       	testb  $0x40,0x48(%esp)
 8049735:	0f 84 6b 0d 00 00    	je     804a4a6 <_vfprintf_r+0x183a>
		if (!isa)
			*p++ = '0';
		*p++ = to_char (exp);
	}
	return (p - p0);
}
 804973b:	8b 8c 24 6c 01 00 00 	mov    0x16c(%esp),%ecx
 8049742:	8b 09                	mov    (%ecx),%ecx
 8049744:	89 4c 24 34          	mov    %ecx,0x34(%esp)
 8049748:	81 e1 ff ff 00 00    	and    $0xffff,%ecx
		case 'X':
			xdigs = "0123456789ABCDEF";
			goto hex;
		case 'x':
			xdigs = "0123456789abcdef";
hex:			_uquad = UARG ();
 804974e:	8b 84 24 6c 01 00 00 	mov    0x16c(%esp),%eax
 8049755:	83 c0 04             	add    $0x4,%eax
 8049758:	89 84 24 6c 01 00 00 	mov    %eax,0x16c(%esp)
 804975f:	e9 c4 fd ff ff       	jmp    8049528 <_vfprintf_r+0x8bc>
 8049764:	89 44 24 68          	mov    %eax,0x68(%esp)
				}
			}
			else
#endif /* _MB_CAPABLE */
			{
				*cp = GET_ARG (N, ap, int);
 8049768:	8b 8c 24 6c 01 00 00 	mov    0x16c(%esp),%ecx
 804976f:	8b 01                	mov    (%ecx),%eax
 8049771:	88 84 24 d8 00 00 00 	mov    %al,0xd8(%esp)
				size = 1;
			}
			sign = '\0';
 8049778:	c6 84 24 ad 00 00 00 	movb   $0x0,0xad(%esp)
 804977f:	00 
				}
			}
			else
#endif /* _MB_CAPABLE */
			{
				*cp = GET_ARG (N, ap, int);
 8049780:	83 c1 04             	add    $0x4,%ecx
 8049783:	89 8c 24 6c 01 00 00 	mov    %ecx,0x16c(%esp)
 804978a:	e9 90 f6 ff ff       	jmp    8048e1f <_vfprintf_r+0x1b3>
 804978f:	89 44 24 68          	mov    %eax,0x68(%esp)
 8049793:	88 8c 24 ad 00 00 00 	mov    %cl,0xad(%esp)
		case 'D':  /* extension */
			flags |= LONGINT;
			/*FALLTHROUGH*/
		case 'd':
		case 'i':
			_uquad = SARG ();
 804979a:	f6 44 24 48 10       	testb  $0x10,0x48(%esp)
 804979f:	0f 84 0c fe ff ff    	je     80495b1 <_vfprintf_r+0x945>
 80497a5:	8b 94 24 6c 01 00 00 	mov    0x16c(%esp),%edx
 80497ac:	8b 0a                	mov    (%edx),%ecx
 80497ae:	83 c2 04             	add    $0x4,%edx
 80497b1:	89 94 24 6c 01 00 00 	mov    %edx,0x16c(%esp)
 80497b8:	e9 13 fe ff ff       	jmp    80495d0 <_vfprintf_r+0x964>
			/*
			 * ``Note that 0 is taken as a flag, not as the
			 * beginning of a field width.''
			 *	-- ANSI X3J11
			 */
			flags |= ZEROPAD;
 80497bd:	81 4c 24 48 80 00 00 	orl    $0x80,0x48(%esp)
 80497c4:	00 
			goto rflag;
 80497c5:	e9 23 f6 ff ff       	jmp    8048ded <_vfprintf_r+0x181>
		N = arg_index;
		is_pos_arg = 0;
#endif

rflag:		ch = *fmt++;
reswitch:	switch (ch) {
 80497ca:	31 f6                	xor    %esi,%esi
 80497cc:	8d 50 d0             	lea    -0x30(%eax),%edx
 80497cf:	90                   	nop
			goto rflag;
		case '1': case '2': case '3': case '4':
		case '5': case '6': case '7': case '8': case '9':
			n = 0;
			do {
				n = 10 * n + to_digit (ch);
 80497d0:	8d 04 b6             	lea    (%esi,%esi,4),%eax
 80497d3:	8d 34 42             	lea    (%edx,%eax,2),%esi
				ch = *fmt++;
 80497d6:	0f be 03             	movsbl (%ebx),%eax
 80497d9:	43                   	inc    %ebx
			} while (is_digit (ch));
 80497da:	8d 50 d0             	lea    -0x30(%eax),%edx
 80497dd:	83 fa 09             	cmp    $0x9,%edx
 80497e0:	76 ee                	jbe    80497d0 <_vfprintf_r+0xb64>
			goto rflag;
		case '1': case '2': case '3': case '4':
		case '5': case '6': case '7': case '8': case '9':
			n = 0;
			do {
				n = 10 * n + to_digit (ch);
 80497e2:	89 74 24 5c          	mov    %esi,0x5c(%esp)
 80497e6:	e9 06 f6 ff ff       	jmp    8048df1 <_vfprintf_r+0x185>
			goto rflag;
		case '+':
			sign = '+';
			goto rflag;
		case '.':
			if ((ch = *fmt++) == '*') {
 80497eb:	0f be 03             	movsbl (%ebx),%eax
 80497ee:	43                   	inc    %ebx
 80497ef:	83 f8 2a             	cmp    $0x2a,%eax
 80497f2:	0f 84 64 14 00 00    	je     804ac5c <_vfprintf_r+0x1ff0>
				if (prec < 0)
					prec = -1;
				goto rflag;
			}
			n = 0;
			while (is_digit (ch)) {
 80497f8:	8d 50 d0             	lea    -0x30(%eax),%edx
 80497fb:	31 ed                	xor    %ebp,%ebp
 80497fd:	83 fa 09             	cmp    $0x9,%edx
 8049800:	0f 87 eb f5 ff ff    	ja     8048df1 <_vfprintf_r+0x185>
 8049806:	66 90                	xchg   %ax,%ax
				n = 10 * n + to_digit (ch);
 8049808:	8d 44 ad 00          	lea    0x0(%ebp,%ebp,4),%eax
 804980c:	8d 2c 42             	lea    (%edx,%eax,2),%ebp
				ch = *fmt++;
 804980f:	0f be 03             	movsbl (%ebx),%eax
 8049812:	43                   	inc    %ebx
				if (prec < 0)
					prec = -1;
				goto rflag;
			}
			n = 0;
			while (is_digit (ch)) {
 8049813:	8d 50 d0             	lea    -0x30(%eax),%edx
 8049816:	83 fa 09             	cmp    $0x9,%edx
 8049819:	76 ed                	jbe    8049808 <_vfprintf_r+0xb9c>
 804981b:	85 ed                	test   %ebp,%ebp
 804981d:	0f 89 ce f5 ff ff    	jns    8048df1 <_vfprintf_r+0x185>
 8049823:	bd ff ff ff ff       	mov    $0xffffffff,%ebp
 8049828:	e9 c4 f5 ff ff       	jmp    8048df1 <_vfprintf_r+0x185>
 804982d:	89 44 24 68          	mov    %eax,0x68(%esp)
 8049831:	e9 6a fe ff ff       	jmp    80496a0 <_vfprintf_r+0xa34>
 8049836:	89 44 24 68          	mov    %eax,0x68(%esp)
 804983a:	e9 8f fe ff ff       	jmp    80496ce <_vfprintf_r+0xa62>
#ifdef _WANT_IO_C99_FORMATS
			else if (flags & CHARINT)
				*GET_ARG (N, ap, char_ptr_t) = ret;
#endif
			else
				*GET_ARG (N, ap, int_ptr_t) = ret;
 804983f:	8b 8c 24 6c 01 00 00 	mov    0x16c(%esp),%ecx
 8049846:	8b 01                	mov    (%ecx),%eax
 8049848:	8b 54 24 54          	mov    0x54(%esp),%edx
 804984c:	89 10                	mov    %edx,(%eax)
 804984e:	83 c1 04             	add    $0x4,%ecx
 8049851:	89 8c 24 6c 01 00 00 	mov    %ecx,0x16c(%esp)
 8049858:	e9 16 f5 ff ff       	jmp    8048d73 <_vfprintf_r+0x107>
 804985d:	89 6c 24 4c          	mov    %ebp,0x4c(%esp)
 8049861:	0f b6 b4 24 ad 00 00 	movzbl 0xad(%esp),%esi
 8049868:	00 
				 */
				char *p = memchr (cp, 0, prec);

				if (p != NULL) {
					size = p - cp;
					if (size > prec)
 8049869:	89 6c 24 50          	mov    %ebp,0x50(%esp)
			goto nosign;
		case 's':
#ifdef _WANT_IO_C99_FORMATS
		case 'S':
#endif
			cp = GET_ARG (N, ap, char_ptr_t);
 804986d:	89 94 24 6c 01 00 00 	mov    %edx,0x16c(%esp)
#endif
		fmt_anchor = fmt;
		fmt++;		/* skip over '%' */

		flags = 0;
		dprec = 0;
 8049874:	c7 44 24 6c 00 00 00 	movl   $0x0,0x6c(%esp)
 804987b:	00 
		width = 0;
		prec = -1;
		sign = '\0';
#ifdef FLOATING_POINT
		lead = 0;
 804987c:	c7 44 24 78 00 00 00 	movl   $0x0,0x78(%esp)
 8049883:	00 
 8049884:	e9 03 fc ff ff       	jmp    804948c <_vfprintf_r+0x820>
 8049889:	8d 76 00             	lea    0x0(%esi),%esi
				/*
				 * Unsigned mod is hard, and unsigned mod
				 * by a constant is easier than that by
				 * a variable; hence this switch.
				 */
				switch (base) {
 804988c:	3c 01                	cmp    $0x1,%al
 804988e:	0f 84 78 04 00 00    	je     8049d0c <_vfprintf_r+0x10a0>
 8049894:	3c 02                	cmp    $0x2,%al
			/*
			 * ``The result of converting a zero value with an
			 * explicit precision of zero is no characters.''
			 *	-- ANSI X3J11
			 */
			cp = buf + BUF;
 8049896:	8d 84 24 00 01 00 00 	lea    0x100(%esp),%eax
				/*
				 * Unsigned mod is hard, and unsigned mod
				 * by a constant is easier than that by
				 * a variable; hence this switch.
				 */
				switch (base) {
 804989d:	0f 84 32 04 00 00    	je     8049cd5 <_vfprintf_r+0x1069>
			/*
			 * ``The result of converting a zero value with an
			 * explicit precision of zero is no characters.''
			 *	-- ANSI X3J11
			 */
			cp = buf + BUF;
 80498a3:	89 c2                	mov    %eax,%edx
 80498a5:	8d 76 00             	lea    0x0(%esi),%esi
				 * a variable; hence this switch.
				 */
				switch (base) {
				case OCT:
					do {
						*--cp = to_char (_uquad & 7);
 80498a8:	4a                   	dec    %edx
 80498a9:	89 c8                	mov    %ecx,%eax
 80498ab:	83 e0 07             	and    $0x7,%eax
 80498ae:	83 c0 30             	add    $0x30,%eax
 80498b1:	88 02                	mov    %al,(%edx)
						_uquad >>= 3;
					} while (_uquad);
 80498b3:	c1 e9 03             	shr    $0x3,%ecx
 80498b6:	75 f0                	jne    80498a8 <_vfprintf_r+0xc3c>
 80498b8:	89 54 24 60          	mov    %edx,0x60(%esp)
					/* handle octal leading 0 */
					if (flags & ALT && *cp != '0')
 80498bc:	f6 44 24 48 01       	testb  $0x1,0x48(%esp)
 80498c1:	0f 85 1f 07 00 00    	jne    8049fe6 <_vfprintf_r+0x137a>
 80498c7:	8b 4c 24 44          	mov    0x44(%esp),%ecx
 80498cb:	29 d1                	sub    %edx,%ecx
 80498cd:	89 4c 24 50          	mov    %ecx,0x50(%esp)
 80498d1:	e9 9a fb ff ff       	jmp    8049470 <_vfprintf_r+0x804>
 80498d6:	66 90                	xchg   %ax,%ax
		/* the string or number proper */
#ifdef FLOATING_POINT
		if ((flags & FPT) == 0) {
			PRINT (cp, size);
		} else {	/* glue together f_p fragments */
			if (ch >= 'f') {	/* 'f' or 'g' */
 80498d8:	83 7c 24 68 65       	cmpl   $0x65,0x68(%esp)
 80498dd:	0f 8e f5 01 00 00    	jle    8049ad8 <_vfprintf_r+0xe6c>
				if (_fpvalue == 0) {
 80498e3:	d9 ee                	fldz   
 80498e5:	dd 84 24 80 00 00 00 	fldl   0x80(%esp)
 80498ec:	da e9                	fucompp 
 80498ee:	df e0                	fnstsw %ax
 80498f0:	80 e4 45             	and    $0x45,%ah
 80498f3:	80 f4 40             	xor    $0x40,%ah
 80498f6:	0f 85 7a 04 00 00    	jne    8049d76 <_vfprintf_r+0x110a>
					/* kludge for __dtoa irregularity */
					PRINT ("0", 1);
 80498fc:	c7 07 cd 16 05 08    	movl   $0x80516cd,(%edi)
 8049902:	c7 47 04 01 00 00 00 	movl   $0x1,0x4(%edi)
 8049909:	ff 84 24 d4 00 00 00 	incl   0xd4(%esp)
 8049910:	8b 94 24 d0 00 00 00 	mov    0xd0(%esp),%edx
 8049917:	42                   	inc    %edx
 8049918:	89 94 24 d0 00 00 00 	mov    %edx,0xd0(%esp)
 804991f:	83 fa 07             	cmp    $0x7,%edx
 8049922:	0f 8f e1 0b 00 00    	jg     804a509 <_vfprintf_r+0x189d>
 8049928:	83 c7 08             	add    $0x8,%edi
					if (expt < ndig || flags & ALT) {
 804992b:	8b 4c 24 70          	mov    0x70(%esp),%ecx
 804992f:	39 8c 24 b0 00 00 00 	cmp    %ecx,0xb0(%esp)
 8049936:	7c 0b                	jl     8049943 <_vfprintf_r+0xcd7>
 8049938:	f6 44 24 48 01       	testb  $0x1,0x48(%esp)
 804993d:	0f 84 83 f7 ff ff    	je     80490c6 <_vfprintf_r+0x45a>
						PRINT (decimal_point, decp_len);
 8049943:	8b 4c 24 74          	mov    0x74(%esp),%ecx
 8049947:	89 0f                	mov    %ecx,(%edi)
 8049949:	8b 44 24 7c          	mov    0x7c(%esp),%eax
 804994d:	89 47 04             	mov    %eax,0x4(%edi)
 8049950:	01 84 24 d4 00 00 00 	add    %eax,0xd4(%esp)
 8049957:	8b 94 24 d0 00 00 00 	mov    0xd0(%esp),%edx
 804995e:	42                   	inc    %edx
 804995f:	89 94 24 d0 00 00 00 	mov    %edx,0xd0(%esp)
 8049966:	83 fa 07             	cmp    $0x7,%edx
 8049969:	0f 8f 6b 0d 00 00    	jg     804a6da <_vfprintf_r+0x1a6e>
 804996f:	83 c7 08             	add    $0x8,%edi
						PAD (ndig - 1, zeroes);
 8049972:	8b 74 24 70          	mov    0x70(%esp),%esi
 8049976:	4e                   	dec    %esi
 8049977:	85 f6                	test   %esi,%esi
 8049979:	0f 8e 47 f7 ff ff    	jle    80490c6 <_vfprintf_r+0x45a>
 804997f:	8b 94 24 d0 00 00 00 	mov    0xd0(%esp),%edx
 8049986:	83 fe 10             	cmp    $0x10,%esi
 8049989:	0f 8e ee 05 00 00    	jle    8049f7d <_vfprintf_r+0x1311>
 804998f:	8d ac 24 cc 00 00 00 	lea    0xcc(%esp),%ebp
 8049996:	89 5c 24 50          	mov    %ebx,0x50(%esp)
 804999a:	89 f8                	mov    %edi,%eax
 804999c:	89 f7                	mov    %esi,%edi
 804999e:	8b 9c 24 60 01 00 00 	mov    0x160(%esp),%ebx
 80499a5:	8b b4 24 64 01 00 00 	mov    0x164(%esp),%esi
 80499ac:	eb 11                	jmp    80499bf <_vfprintf_r+0xd53>
 80499ae:	66 90                	xchg   %ax,%ax
 80499b0:	83 c0 08             	add    $0x8,%eax
 80499b3:	83 ef 10             	sub    $0x10,%edi
 80499b6:	83 ff 10             	cmp    $0x10,%edi
 80499b9:	0f 8e b6 05 00 00    	jle    8049f75 <_vfprintf_r+0x1309>
 80499bf:	c7 00 44 18 05 08    	movl   $0x8051844,(%eax)
 80499c5:	c7 40 04 10 00 00 00 	movl   $0x10,0x4(%eax)
 80499cc:	83 84 24 d4 00 00 00 	addl   $0x10,0xd4(%esp)
 80499d3:	10 
 80499d4:	42                   	inc    %edx
 80499d5:	89 94 24 d0 00 00 00 	mov    %edx,0xd0(%esp)
 80499dc:	83 fa 07             	cmp    $0x7,%edx
 80499df:	7e cf                	jle    80499b0 <_vfprintf_r+0xd44>
 80499e1:	89 6c 24 08          	mov    %ebp,0x8(%esp)
 80499e5:	89 74 24 04          	mov    %esi,0x4(%esp)
 80499e9:	89 1c 24             	mov    %ebx,(%esp)
 80499ec:	e8 fb 58 00 00       	call   804f2ec <__sprint_r>
 80499f1:	85 c0                	test   %eax,%eax
 80499f3:	0f 85 d7 f8 ff ff    	jne    80492d0 <_vfprintf_r+0x664>
 80499f9:	8d 84 24 00 01 00 00 	lea    0x100(%esp),%eax
 8049a00:	8b 94 24 d0 00 00 00 	mov    0xd0(%esp),%edx
 8049a07:	eb aa                	jmp    80499b3 <_vfprintf_r+0xd47>
 8049a09:	8d 76 00             	lea    0x0(%esi),%esi
		if (flags & HEXPREFIX)
			PRINT (ox, 2);

		/* right-adjusting zero padding */
		if ((flags & (LADJUST|ZEROPAD)) == ZEROPAD)
			PAD (width - realsz, zeroes);
 8049a0c:	8b 6c 24 5c          	mov    0x5c(%esp),%ebp
 8049a10:	2b 6c 24 4c          	sub    0x4c(%esp),%ebp
 8049a14:	85 ed                	test   %ebp,%ebp
 8049a16:	0f 8e a9 f5 ff ff    	jle    8048fc5 <_vfprintf_r+0x359>
 8049a1c:	8b 94 24 d0 00 00 00 	mov    0xd0(%esp),%edx
 8049a23:	83 fd 10             	cmp    $0x10,%ebp
 8049a26:	0f 8e 81 00 00 00    	jle    8049aad <_vfprintf_r+0xe41>
 8049a2c:	8d b4 24 cc 00 00 00 	lea    0xcc(%esp),%esi
 8049a33:	89 5c 24 58          	mov    %ebx,0x58(%esp)
 8049a37:	89 f8                	mov    %edi,%eax
 8049a39:	8b 9c 24 60 01 00 00 	mov    0x160(%esp),%ebx
 8049a40:	8b bc 24 64 01 00 00 	mov    0x164(%esp),%edi
 8049a47:	eb 0e                	jmp    8049a57 <_vfprintf_r+0xdeb>
 8049a49:	8d 76 00             	lea    0x0(%esi),%esi
 8049a4c:	83 c0 08             	add    $0x8,%eax
 8049a4f:	83 ed 10             	sub    $0x10,%ebp
 8049a52:	83 fd 10             	cmp    $0x10,%ebp
 8049a55:	7e 50                	jle    8049aa7 <_vfprintf_r+0xe3b>
 8049a57:	c7 00 44 18 05 08    	movl   $0x8051844,(%eax)
 8049a5d:	c7 40 04 10 00 00 00 	movl   $0x10,0x4(%eax)
 8049a64:	83 84 24 d4 00 00 00 	addl   $0x10,0xd4(%esp)
 8049a6b:	10 
 8049a6c:	42                   	inc    %edx
 8049a6d:	89 94 24 d0 00 00 00 	mov    %edx,0xd0(%esp)
 8049a74:	83 fa 07             	cmp    $0x7,%edx
 8049a77:	7e d3                	jle    8049a4c <_vfprintf_r+0xde0>
 8049a79:	89 74 24 08          	mov    %esi,0x8(%esp)
 8049a7d:	89 7c 24 04          	mov    %edi,0x4(%esp)
 8049a81:	89 1c 24             	mov    %ebx,(%esp)
 8049a84:	e8 63 58 00 00       	call   804f2ec <__sprint_r>
 8049a89:	85 c0                	test   %eax,%eax
 8049a8b:	0f 85 3f f8 ff ff    	jne    80492d0 <_vfprintf_r+0x664>
 8049a91:	8d 84 24 00 01 00 00 	lea    0x100(%esp),%eax
 8049a98:	8b 94 24 d0 00 00 00 	mov    0xd0(%esp),%edx
 8049a9f:	83 ed 10             	sub    $0x10,%ebp
 8049aa2:	83 fd 10             	cmp    $0x10,%ebp
 8049aa5:	7f b0                	jg     8049a57 <_vfprintf_r+0xdeb>
 8049aa7:	8b 5c 24 58          	mov    0x58(%esp),%ebx
 8049aab:	89 c7                	mov    %eax,%edi
 8049aad:	c7 07 44 18 05 08    	movl   $0x8051844,(%edi)
 8049ab3:	89 6f 04             	mov    %ebp,0x4(%edi)
 8049ab6:	01 ac 24 d4 00 00 00 	add    %ebp,0xd4(%esp)
 8049abd:	42                   	inc    %edx
 8049abe:	89 94 24 d0 00 00 00 	mov    %edx,0xd0(%esp)
 8049ac5:	83 fa 07             	cmp    $0x7,%edx
 8049ac8:	0f 8f c2 07 00 00    	jg     804a290 <_vfprintf_r+0x1624>
 8049ace:	83 c7 08             	add    $0x8,%edi
 8049ad1:	e9 ef f4 ff ff       	jmp    8048fc5 <_vfprintf_r+0x359>
 8049ad6:	66 90                	xchg   %ax,%ax
					PRINTANDPAD (cp, convbuf + ndig,
						     ndig - expt, zeroes);
				}
			} else {	/* 'a', 'A', 'e', or 'E' */
				if (ndig > 1 || flags & ALT) {
					PRINT (cp, 1);
 8049ad8:	8b 44 24 60          	mov    0x60(%esp),%eax
					    PRINT (decimal_point, decp_len);
					PRINTANDPAD (cp, convbuf + ndig,
						     ndig - expt, zeroes);
				}
			} else {	/* 'a', 'A', 'e', or 'E' */
				if (ndig > 1 || flags & ALT) {
 8049adc:	83 7c 24 70 01       	cmpl   $0x1,0x70(%esp)
 8049ae1:	0f 8e 8a 06 00 00    	jle    804a171 <_vfprintf_r+0x1505>
					PRINT (cp, 1);
 8049ae7:	89 07                	mov    %eax,(%edi)
 8049ae9:	c7 47 04 01 00 00 00 	movl   $0x1,0x4(%edi)
 8049af0:	ff 84 24 d4 00 00 00 	incl   0xd4(%esp)
 8049af7:	8b 94 24 d0 00 00 00 	mov    0xd0(%esp),%edx
 8049afe:	42                   	inc    %edx
 8049aff:	89 94 24 d0 00 00 00 	mov    %edx,0xd0(%esp)
 8049b06:	83 fa 07             	cmp    $0x7,%edx
 8049b09:	0f 8f d5 06 00 00    	jg     804a1e4 <_vfprintf_r+0x1578>
 8049b0f:	83 c7 08             	add    $0x8,%edi
					cp++;
					PRINT (decimal_point, decp_len);
 8049b12:	8b 4c 24 74          	mov    0x74(%esp),%ecx
 8049b16:	89 0f                	mov    %ecx,(%edi)
 8049b18:	8b 44 24 7c          	mov    0x7c(%esp),%eax
 8049b1c:	89 47 04             	mov    %eax,0x4(%edi)
 8049b1f:	01 84 24 d4 00 00 00 	add    %eax,0xd4(%esp)
 8049b26:	42                   	inc    %edx
 8049b27:	89 94 24 d0 00 00 00 	mov    %edx,0xd0(%esp)
 8049b2e:	83 fa 07             	cmp    $0x7,%edx
 8049b31:	0f 8f 19 07 00 00    	jg     804a250 <_vfprintf_r+0x15e4>
 8049b37:	83 c7 08             	add    $0x8,%edi
					if (_fpvalue) {
 8049b3a:	d9 ee                	fldz   
 8049b3c:	dd 84 24 80 00 00 00 	fldl   0x80(%esp)
 8049b43:	da e9                	fucompp 
 8049b45:	df e0                	fnstsw %ax
 8049b47:	80 e4 45             	and    $0x45,%ah
 8049b4a:	80 fc 40             	cmp    $0x40,%ah
 8049b4d:	0f 84 95 03 00 00    	je     8049ee8 <_vfprintf_r+0x127c>
						     ndig - expt, zeroes);
				}
			} else {	/* 'a', 'A', 'e', or 'E' */
				if (ndig > 1 || flags & ALT) {
					PRINT (cp, 1);
					cp++;
 8049b53:	8b 44 24 60          	mov    0x60(%esp),%eax
 8049b57:	40                   	inc    %eax
 8049b58:	89 07                	mov    %eax,(%edi)
					PRINT (decimal_point, decp_len);
					if (_fpvalue) {
						PRINT (cp, ndig - 1);
 8049b5a:	8b 44 24 70          	mov    0x70(%esp),%eax
 8049b5e:	48                   	dec    %eax
 8049b5f:	89 47 04             	mov    %eax,0x4(%edi)
 8049b62:	8b 84 24 d4 00 00 00 	mov    0xd4(%esp),%eax
 8049b69:	8b 4c 24 70          	mov    0x70(%esp),%ecx
 8049b6d:	8d 44 01 ff          	lea    -0x1(%ecx,%eax,1),%eax
 8049b71:	89 84 24 d4 00 00 00 	mov    %eax,0xd4(%esp)
 8049b78:	42                   	inc    %edx
 8049b79:	89 94 24 d0 00 00 00 	mov    %edx,0xd0(%esp)
 8049b80:	83 fa 07             	cmp    $0x7,%edx
 8049b83:	0f 8f 1b 06 00 00    	jg     804a1a4 <_vfprintf_r+0x1538>
					} else	/* 0.[0..] */
						/* __dtoa irregularity */
						PAD (ndig - 1, zeroes);
				} else	/* XeYYY */
					PRINT (cp, 1);
 8049b89:	83 c7 08             	add    $0x8,%edi
				PRINT (expstr, expsize);
 8049b8c:	8d 84 24 be 00 00 00 	lea    0xbe(%esp),%eax
 8049b93:	89 07                	mov    %eax,(%edi)
 8049b95:	8b 8c 24 88 00 00 00 	mov    0x88(%esp),%ecx
 8049b9c:	89 4f 04             	mov    %ecx,0x4(%edi)
 8049b9f:	01 8c 24 d4 00 00 00 	add    %ecx,0xd4(%esp)
 8049ba6:	42                   	inc    %edx
 8049ba7:	89 94 24 d0 00 00 00 	mov    %edx,0xd0(%esp)
 8049bae:	83 fa 07             	cmp    $0x7,%edx
 8049bb1:	0f 8e 0c f5 ff ff    	jle    80490c3 <_vfprintf_r+0x457>
		PAD (dprec - size, zeroes);

		/* the string or number proper */
#ifdef FLOATING_POINT
		if ((flags & FPT) == 0) {
			PRINT (cp, size);
 8049bb7:	8d 84 24 cc 00 00 00 	lea    0xcc(%esp),%eax
 8049bbe:	89 44 24 08          	mov    %eax,0x8(%esp)
 8049bc2:	8b 94 24 64 01 00 00 	mov    0x164(%esp),%edx
 8049bc9:	89 54 24 04          	mov    %edx,0x4(%esp)
 8049bcd:	8b 84 24 60 01 00 00 	mov    0x160(%esp),%eax
 8049bd4:	89 04 24             	mov    %eax,(%esp)
 8049bd7:	e8 10 57 00 00       	call   804f2ec <__sprint_r>
 8049bdc:	85 c0                	test   %eax,%eax
 8049bde:	0f 85 ec f6 ff ff    	jne    80492d0 <_vfprintf_r+0x664>
 8049be4:	8d bc 24 00 01 00 00 	lea    0x100(%esp),%edi
 8049beb:	e9 d6 f4 ff ff       	jmp    80490c6 <_vfprintf_r+0x45a>
			PAD (width - realsz, blanks);

		/* finally, adjust ret */
		ret += width > realsz ? width : realsz;

		FLUSH ();	/* copy out the I/O vectors */
 8049bf0:	8d 84 24 cc 00 00 00 	lea    0xcc(%esp),%eax
 8049bf7:	89 44 24 08          	mov    %eax,0x8(%esp)
 8049bfb:	8b 94 24 64 01 00 00 	mov    0x164(%esp),%edx
 8049c02:	89 54 24 04          	mov    %edx,0x4(%esp)
 8049c06:	8b 84 24 60 01 00 00 	mov    0x160(%esp),%eax
 8049c0d:	89 04 24             	mov    %eax,(%esp)
 8049c10:	e8 d7 56 00 00       	call   804f2ec <__sprint_r>
 8049c15:	85 c0                	test   %eax,%eax
 8049c17:	0f 84 c8 f5 ff ff    	je     80491e5 <_vfprintf_r+0x579>
 8049c1d:	e9 ae f6 ff ff       	jmp    80492d0 <_vfprintf_r+0x664>
 8049c22:	66 90                	xchg   %ax,%ax
		/* right-adjusting zero padding */
		if ((flags & (LADJUST|ZEROPAD)) == ZEROPAD)
			PAD (width - realsz, zeroes);

		/* leading zeroes from decimal precision */
		PAD (dprec - size, zeroes);
 8049c24:	8d 84 24 cc 00 00 00 	lea    0xcc(%esp),%eax
 8049c2b:	89 44 24 08          	mov    %eax,0x8(%esp)
 8049c2f:	8b 94 24 64 01 00 00 	mov    0x164(%esp),%edx
 8049c36:	89 54 24 04          	mov    %edx,0x4(%esp)
 8049c3a:	8b 84 24 60 01 00 00 	mov    0x160(%esp),%eax
 8049c41:	89 04 24             	mov    %eax,(%esp)
 8049c44:	e8 a3 56 00 00       	call   804f2ec <__sprint_r>
 8049c49:	85 c0                	test   %eax,%eax
 8049c4b:	0f 85 7f f6 ff ff    	jne    80492d0 <_vfprintf_r+0x664>
 8049c51:	8d bc 24 00 01 00 00 	lea    0x100(%esp),%edi
 8049c58:	e9 2c f4 ff ff       	jmp    8049089 <_vfprintf_r+0x41d>
 8049c5d:	8d 76 00             	lea    0x0(%esi),%esi
		if ((flags & (LADJUST|ZEROPAD)) == 0)
			PAD (width - realsz, blanks);

		/* prefix */
		if (sign)
			PRINT (&sign, 1);
 8049c60:	8d 84 24 cc 00 00 00 	lea    0xcc(%esp),%eax
 8049c67:	89 44 24 08          	mov    %eax,0x8(%esp)
 8049c6b:	8b 94 24 64 01 00 00 	mov    0x164(%esp),%edx
 8049c72:	89 54 24 04          	mov    %edx,0x4(%esp)
 8049c76:	8b 84 24 60 01 00 00 	mov    0x160(%esp),%eax
 8049c7d:	89 04 24             	mov    %eax,(%esp)
 8049c80:	e8 67 56 00 00       	call   804f2ec <__sprint_r>
 8049c85:	85 c0                	test   %eax,%eax
 8049c87:	0f 85 43 f6 ff ff    	jne    80492d0 <_vfprintf_r+0x664>
 8049c8d:	8d bc 24 00 01 00 00 	lea    0x100(%esp),%edi
 8049c94:	e9 e3 f2 ff ff       	jmp    8048f7c <_vfprintf_r+0x310>
 8049c99:	8d 76 00             	lea    0x0(%esi),%esi
		if (flags & HEXPREFIX)
			PRINT (ox, 2);
 8049c9c:	8d 84 24 cc 00 00 00 	lea    0xcc(%esp),%eax
 8049ca3:	89 44 24 08          	mov    %eax,0x8(%esp)
 8049ca7:	8b 94 24 64 01 00 00 	mov    0x164(%esp),%edx
 8049cae:	89 54 24 04          	mov    %edx,0x4(%esp)
 8049cb2:	8b 84 24 60 01 00 00 	mov    0x160(%esp),%eax
 8049cb9:	89 04 24             	mov    %eax,(%esp)
 8049cbc:	e8 2b 56 00 00       	call   804f2ec <__sprint_r>
 8049cc1:	85 c0                	test   %eax,%eax
 8049cc3:	0f 85 07 f6 ff ff    	jne    80492d0 <_vfprintf_r+0x664>
 8049cc9:	8d bc 24 00 01 00 00 	lea    0x100(%esp),%edi
 8049cd0:	e9 e2 f2 ff ff       	jmp    8048fb7 <_vfprintf_r+0x34b>
			/*
			 * ``The result of converting a zero value with an
			 * explicit precision of zero is no characters.''
			 *	-- ANSI X3J11
			 */
			cp = buf + BUF;
 8049cd5:	89 44 24 60          	mov    %eax,0x60(%esp)
 8049cd9:	89 5c 24 50          	mov    %ebx,0x50(%esp)
 8049cdd:	8b 9c 24 8c 00 00 00 	mov    0x8c(%esp),%ebx
					} while (_uquad != 0);
					break;

				case HEX:
					do {
						*--cp = xdigs[_uquad & 15];
 8049ce4:	48                   	dec    %eax
 8049ce5:	89 ca                	mov    %ecx,%edx
 8049ce7:	83 e2 0f             	and    $0xf,%edx
 8049cea:	8a 14 13             	mov    (%ebx,%edx,1),%dl
 8049ced:	88 10                	mov    %dl,(%eax)
						_uquad >>= 4;
					} while (_uquad);
 8049cef:	c1 e9 04             	shr    $0x4,%ecx
 8049cf2:	75 f0                	jne    8049ce4 <_vfprintf_r+0x1078>
 8049cf4:	8b 5c 24 50          	mov    0x50(%esp),%ebx
 8049cf8:	89 44 24 60          	mov    %eax,0x60(%esp)
 8049cfc:	8b 54 24 44          	mov    0x44(%esp),%edx
 8049d00:	29 c2                	sub    %eax,%edx
 8049d02:	89 54 24 50          	mov    %edx,0x50(%esp)
 8049d06:	e9 65 f7 ff ff       	jmp    8049470 <_vfprintf_r+0x804>
 8049d0b:	90                   	nop
						*--cp = '0';
					break;

				case DEC:
					/* many numbers are 1 digit */
					if (_uquad < 10) {
 8049d0c:	83 f9 09             	cmp    $0x9,%ecx
 8049d0f:	0f 87 8e 02 00 00    	ja     8049fa3 <_vfprintf_r+0x1337>
						*--cp = to_char(_uquad);
 8049d15:	83 c1 30             	add    $0x30,%ecx
 8049d18:	88 8c 24 ff 00 00 00 	mov    %cl,0xff(%esp)
 8049d1f:	8b 8c 24 94 00 00 00 	mov    0x94(%esp),%ecx
 8049d26:	89 4c 24 50          	mov    %ecx,0x50(%esp)
 8049d2a:	8d 84 24 ff 00 00 00 	lea    0xff(%esp),%eax
 8049d31:	89 44 24 60          	mov    %eax,0x60(%esp)
						break;
 8049d35:	e9 36 f7 ff ff       	jmp    8049470 <_vfprintf_r+0x804>
 8049d3a:	66 90                	xchg   %ax,%ax
			*     -- ANSI X3J11
			*
			* To demonstrate this case, compile and run:
                        *    printf ("%#.0o",0);
			*/
                       else if (base == OCT && (flags & ALT))
 8049d3c:	c7 44 24 50 00 00 00 	movl   $0x0,0x50(%esp)
 8049d43:	00 
			/*
			 * ``The result of converting a zero value with an
			 * explicit precision of zero is no characters.''
			 *	-- ANSI X3J11
			 */
			cp = buf + BUF;
 8049d44:	8d 84 24 00 01 00 00 	lea    0x100(%esp),%eax
 8049d4b:	89 44 24 60          	mov    %eax,0x60(%esp)
 8049d4f:	e9 1c f7 ff ff       	jmp    8049470 <_vfprintf_r+0x804>
			xdigs = "0123456789ABCDEF";
			goto hex;
		case 'x':
			xdigs = "0123456789abcdef";
hex:			_uquad = UARG ();
			base = HEX;
 8049d54:	b0 02                	mov    $0x2,%al
 8049d56:	e9 bd f6 ff ff       	jmp    8049418 <_vfprintf_r+0x7ac>
 8049d5b:	90                   	nop
			break;
		case 'U': /* extension */
			flags |= LONGINT;
			/*FALLTHROUGH*/
		case 'u':
			_uquad = UARG ();
 8049d5c:	8b 94 24 6c 01 00 00 	mov    0x16c(%esp),%edx
 8049d63:	8b 0a                	mov    (%edx),%ecx
 8049d65:	83 c2 04             	add    $0x4,%edx
 8049d68:	89 94 24 6c 01 00 00 	mov    %edx,0x16c(%esp)
			base = DEC;
 8049d6f:	b0 01                	mov    $0x1,%al
 8049d71:	e9 a2 f6 ff ff       	jmp    8049418 <_vfprintf_r+0x7ac>
					PRINT ("0", 1);
					if (expt < ndig || flags & ALT) {
						PRINT (decimal_point, decp_len);
						PAD (ndig - 1, zeroes);
					}
				} else if (expt <= 0) {
 8049d76:	8b b4 24 b0 00 00 00 	mov    0xb0(%esp),%esi
 8049d7d:	85 f6                	test   %esi,%esi
 8049d7f:	0f 8e bd 07 00 00    	jle    804a542 <_vfprintf_r+0x18d6>
						PAD (-expt, zeroes);
						PRINT (cp, ndig);
					}
				} else {
					char *convbuf = cp;
					PRINTANDPAD(cp, convbuf + ndig,
 8049d85:	8b 54 24 60          	mov    0x60(%esp),%edx
 8049d89:	03 54 24 70          	add    0x70(%esp),%edx
 8049d8d:	89 54 24 50          	mov    %edx,0x50(%esp)
 8049d91:	89 d6                	mov    %edx,%esi
 8049d93:	2b 74 24 60          	sub    0x60(%esp),%esi
 8049d97:	3b 74 24 78          	cmp    0x78(%esp),%esi
 8049d9b:	7e 04                	jle    8049da1 <_vfprintf_r+0x1135>
 8049d9d:	8b 74 24 78          	mov    0x78(%esp),%esi
 8049da1:	85 f6                	test   %esi,%esi
 8049da3:	7e 2b                	jle    8049dd0 <_vfprintf_r+0x1164>
 8049da5:	8b 44 24 60          	mov    0x60(%esp),%eax
 8049da9:	89 07                	mov    %eax,(%edi)
 8049dab:	89 77 04             	mov    %esi,0x4(%edi)
 8049dae:	01 b4 24 d4 00 00 00 	add    %esi,0xd4(%esp)
 8049db5:	8b 94 24 d0 00 00 00 	mov    0xd0(%esp),%edx
 8049dbc:	42                   	inc    %edx
 8049dbd:	89 94 24 d0 00 00 00 	mov    %edx,0xd0(%esp)
 8049dc4:	83 fa 07             	cmp    $0x7,%edx
 8049dc7:	0f 8f d2 09 00 00    	jg     804a79f <_vfprintf_r+0x1b33>
 8049dcd:	83 c7 08             	add    $0x8,%edi
 8049dd0:	85 f6                	test   %esi,%esi
 8049dd2:	0f 88 00 0a 00 00    	js     804a7d8 <_vfprintf_r+0x1b6c>
 8049dd8:	8b 54 24 78          	mov    0x78(%esp),%edx
 8049ddc:	29 f2                	sub    %esi,%edx
 8049dde:	89 d6                	mov    %edx,%esi
 8049de0:	85 d2                	test   %edx,%edx
 8049de2:	0f 8e 53 02 00 00    	jle    804a03b <_vfprintf_r+0x13cf>
 8049de8:	8b 94 24 d0 00 00 00 	mov    0xd0(%esp),%edx
 8049def:	83 fe 10             	cmp    $0x10,%esi
 8049df2:	0f 8e e8 06 00 00    	jle    804a4e0 <_vfprintf_r+0x1874>
 8049df8:	8d ac 24 cc 00 00 00 	lea    0xcc(%esp),%ebp
 8049dff:	89 5c 24 58          	mov    %ebx,0x58(%esp)
 8049e03:	89 f8                	mov    %edi,%eax
 8049e05:	89 f7                	mov    %esi,%edi
 8049e07:	8b 9c 24 60 01 00 00 	mov    0x160(%esp),%ebx
 8049e0e:	8b b4 24 64 01 00 00 	mov    0x164(%esp),%esi
 8049e15:	eb 10                	jmp    8049e27 <_vfprintf_r+0x11bb>
 8049e17:	90                   	nop
 8049e18:	83 c0 08             	add    $0x8,%eax
 8049e1b:	83 ef 10             	sub    $0x10,%edi
 8049e1e:	83 ff 10             	cmp    $0x10,%edi
 8049e21:	0f 8e b1 06 00 00    	jle    804a4d8 <_vfprintf_r+0x186c>
 8049e27:	c7 00 44 18 05 08    	movl   $0x8051844,(%eax)
 8049e2d:	c7 40 04 10 00 00 00 	movl   $0x10,0x4(%eax)
 8049e34:	83 84 24 d4 00 00 00 	addl   $0x10,0xd4(%esp)
 8049e3b:	10 
 8049e3c:	42                   	inc    %edx
 8049e3d:	89 94 24 d0 00 00 00 	mov    %edx,0xd0(%esp)
 8049e44:	83 fa 07             	cmp    $0x7,%edx
 8049e47:	7e cf                	jle    8049e18 <_vfprintf_r+0x11ac>
 8049e49:	89 6c 24 08          	mov    %ebp,0x8(%esp)
 8049e4d:	89 74 24 04          	mov    %esi,0x4(%esp)
 8049e51:	89 1c 24             	mov    %ebx,(%esp)
 8049e54:	e8 93 54 00 00       	call   804f2ec <__sprint_r>
 8049e59:	85 c0                	test   %eax,%eax
 8049e5b:	0f 85 6f f4 ff ff    	jne    80492d0 <_vfprintf_r+0x664>
 8049e61:	8d 84 24 00 01 00 00 	lea    0x100(%esp),%eax
 8049e68:	8b 94 24 d0 00 00 00 	mov    0xd0(%esp),%edx
 8049e6f:	eb aa                	jmp    8049e1b <_vfprintf_r+0x11af>
		if (flags & HEXPREFIX)
			realsz+= 2;

		/* right-adjusting blank padding */
		if ((flags & (LADJUST|ZEROPAD)) == 0)
			PAD (width - realsz, blanks);
 8049e71:	8d 84 24 cc 00 00 00 	lea    0xcc(%esp),%eax
 8049e78:	89 44 24 08          	mov    %eax,0x8(%esp)
 8049e7c:	8b 94 24 64 01 00 00 	mov    0x164(%esp),%edx
 8049e83:	89 54 24 04          	mov    %edx,0x4(%esp)
 8049e87:	8b 84 24 60 01 00 00 	mov    0x160(%esp),%eax
 8049e8e:	89 04 24             	mov    %eax,(%esp)
 8049e91:	e8 56 54 00 00       	call   804f2ec <__sprint_r>
 8049e96:	85 c0                	test   %eax,%eax
 8049e98:	0f 85 32 f4 ff ff    	jne    80492d0 <_vfprintf_r+0x664>
 8049e9e:	0f b6 b4 24 ad 00 00 	movzbl 0xad(%esp),%esi
 8049ea5:	00 
 8049ea6:	8d bc 24 00 01 00 00 	lea    0x100(%esp),%edi
 8049ead:	e9 92 f0 ff ff       	jmp    8048f44 <_vfprintf_r+0x2d8>
			continue;	/* no output */
		case 'O': /* extension */
			flags |= LONGINT;
			/*FALLTHROUGH*/
		case 'o':
			_uquad = UARG ();
 8049eb2:	f6 44 24 48 40       	testb  $0x40,0x48(%esp)
 8049eb7:	0f 84 01 06 00 00    	je     804a4be <_vfprintf_r+0x1852>
		if (!isa)
			*p++ = '0';
		*p++ = to_char (exp);
	}
	return (p - p0);
}
 8049ebd:	8b 8c 24 6c 01 00 00 	mov    0x16c(%esp),%ecx
 8049ec4:	8b 09                	mov    (%ecx),%ecx
 8049ec6:	89 4c 24 3c          	mov    %ecx,0x3c(%esp)
 8049eca:	81 e1 ff ff 00 00    	and    $0xffff,%ecx
			continue;	/* no output */
		case 'O': /* extension */
			flags |= LONGINT;
			/*FALLTHROUGH*/
		case 'o':
			_uquad = UARG ();
 8049ed0:	8b 84 24 6c 01 00 00 	mov    0x16c(%esp),%eax
 8049ed7:	83 c0 04             	add    $0x4,%eax
 8049eda:	89 84 24 6c 01 00 00 	mov    %eax,0x16c(%esp)
			base = OCT;
 8049ee1:	31 c0                	xor    %eax,%eax
 8049ee3:	e9 30 f5 ff ff       	jmp    8049418 <_vfprintf_r+0x7ac>
					PRINT (decimal_point, decp_len);
					if (_fpvalue) {
						PRINT (cp, ndig - 1);
					} else	/* 0.[0..] */
						/* __dtoa irregularity */
						PAD (ndig - 1, zeroes);
 8049ee8:	8b 6c 24 70          	mov    0x70(%esp),%ebp
 8049eec:	4d                   	dec    %ebp
 8049eed:	85 ed                	test   %ebp,%ebp
 8049eef:	0f 8e 97 fc ff ff    	jle    8049b8c <_vfprintf_r+0xf20>
 8049ef5:	83 fd 10             	cmp    $0x10,%ebp
 8049ef8:	0f 8e 2c 03 00 00    	jle    804a22a <_vfprintf_r+0x15be>
 8049efe:	8d b4 24 cc 00 00 00 	lea    0xcc(%esp),%esi
 8049f05:	89 5c 24 50          	mov    %ebx,0x50(%esp)
 8049f09:	89 f8                	mov    %edi,%eax
 8049f0b:	8b 9c 24 60 01 00 00 	mov    0x160(%esp),%ebx
 8049f12:	8b bc 24 64 01 00 00 	mov    0x164(%esp),%edi
 8049f19:	eb 10                	jmp    8049f2b <_vfprintf_r+0x12bf>
 8049f1b:	90                   	nop
 8049f1c:	83 c0 08             	add    $0x8,%eax
 8049f1f:	83 ed 10             	sub    $0x10,%ebp
 8049f22:	83 fd 10             	cmp    $0x10,%ebp
 8049f25:	0f 8e f9 02 00 00    	jle    804a224 <_vfprintf_r+0x15b8>
 8049f2b:	c7 00 44 18 05 08    	movl   $0x8051844,(%eax)
 8049f31:	c7 40 04 10 00 00 00 	movl   $0x10,0x4(%eax)
 8049f38:	83 84 24 d4 00 00 00 	addl   $0x10,0xd4(%esp)
 8049f3f:	10 
 8049f40:	42                   	inc    %edx
 8049f41:	89 94 24 d0 00 00 00 	mov    %edx,0xd0(%esp)
 8049f48:	83 fa 07             	cmp    $0x7,%edx
 8049f4b:	7e cf                	jle    8049f1c <_vfprintf_r+0x12b0>
 8049f4d:	89 74 24 08          	mov    %esi,0x8(%esp)
 8049f51:	89 7c 24 04          	mov    %edi,0x4(%esp)
 8049f55:	89 1c 24             	mov    %ebx,(%esp)
 8049f58:	e8 8f 53 00 00       	call   804f2ec <__sprint_r>
 8049f5d:	85 c0                	test   %eax,%eax
 8049f5f:	0f 85 6b f3 ff ff    	jne    80492d0 <_vfprintf_r+0x664>
 8049f65:	8d 84 24 00 01 00 00 	lea    0x100(%esp),%eax
 8049f6c:	8b 94 24 d0 00 00 00 	mov    0xd0(%esp),%edx
 8049f73:	eb aa                	jmp    8049f1f <_vfprintf_r+0x12b3>
 8049f75:	8b 5c 24 50          	mov    0x50(%esp),%ebx
 8049f79:	89 fe                	mov    %edi,%esi
 8049f7b:	89 c7                	mov    %eax,%edi
						cp = convbuf + ndig;
					}
#endif
					if (expt < ndig || flags & ALT)
					    PRINT (decimal_point, decp_len);
					PRINTANDPAD (cp, convbuf + ndig,
 8049f7d:	c7 07 44 18 05 08    	movl   $0x8051844,(%edi)
 8049f83:	89 77 04             	mov    %esi,0x4(%edi)
 8049f86:	01 b4 24 d4 00 00 00 	add    %esi,0xd4(%esp)
 8049f8d:	42                   	inc    %edx
 8049f8e:	89 94 24 d0 00 00 00 	mov    %edx,0xd0(%esp)
 8049f95:	83 fa 07             	cmp    $0x7,%edx
 8049f98:	0f 8e 25 f1 ff ff    	jle    80490c3 <_vfprintf_r+0x457>
 8049f9e:	e9 14 fc ff ff       	jmp    8049bb7 <_vfprintf_r+0xf4b>
			/*
			 * ``The result of converting a zero value with an
			 * explicit precision of zero is no characters.''
			 *	-- ANSI X3J11
			 */
			cp = buf + BUF;
 8049fa3:	8d 84 24 00 01 00 00 	lea    0x100(%esp),%eax
					}
#ifdef _WANT_IO_C99_FORMATS
					ndig = 0;
#endif
					do {
					  *--cp = to_char (_uquad % 10);
 8049faa:	89 5c 24 4c          	mov    %ebx,0x4c(%esp)
 8049fae:	89 c3                	mov    %eax,%ebx
 8049fb0:	4b                   	dec    %ebx
 8049fb1:	b8 cd cc cc cc       	mov    $0xcccccccd,%eax
 8049fb6:	f7 e1                	mul    %ecx
 8049fb8:	c1 ea 03             	shr    $0x3,%edx
 8049fbb:	8d 04 92             	lea    (%edx,%edx,4),%eax
 8049fbe:	d1 e0                	shl    %eax
 8049fc0:	29 c1                	sub    %eax,%ecx
 8049fc2:	83 c1 30             	add    $0x30,%ecx
 8049fc5:	88 0b                	mov    %cl,(%ebx)
					       next cases. */
					    if (grouping[1] != '\0')
					      grouping++;
					  }
#endif
					  _uquad /= 10;
 8049fc7:	89 d1                	mov    %edx,%ecx
					} while (_uquad != 0);
 8049fc9:	85 d2                	test   %edx,%edx
 8049fcb:	75 e3                	jne    8049fb0 <_vfprintf_r+0x1344>
 8049fcd:	89 5c 24 60          	mov    %ebx,0x60(%esp)
 8049fd1:	8b 5c 24 4c          	mov    0x4c(%esp),%ebx
 8049fd5:	8b 54 24 44          	mov    0x44(%esp),%edx
 8049fd9:	2b 54 24 60          	sub    0x60(%esp),%edx
 8049fdd:	89 54 24 50          	mov    %edx,0x50(%esp)
 8049fe1:	e9 8a f4 ff ff       	jmp    8049470 <_vfprintf_r+0x804>
					do {
						*--cp = to_char (_uquad & 7);
						_uquad >>= 3;
					} while (_uquad);
					/* handle octal leading 0 */
					if (flags & ALT && *cp != '0')
 8049fe6:	3c 30                	cmp    $0x30,%al
 8049fe8:	0f 84 25 07 00 00    	je     804a713 <_vfprintf_r+0x1aa7>
						*--cp = '0';
 8049fee:	ff 4c 24 60          	decl   0x60(%esp)
 8049ff2:	c6 42 ff 30          	movb   $0x30,-0x1(%edx)
 8049ff6:	8b 54 24 44          	mov    0x44(%esp),%edx
 8049ffa:	2b 54 24 60          	sub    0x60(%esp),%edx
 8049ffe:	89 54 24 50          	mov    %edx,0x50(%esp)
 804a002:	e9 69 f4 ff ff       	jmp    8049470 <_vfprintf_r+0x804>
						PAD (-expt, zeroes);
						PRINT (cp, ndig);
					}
				} else {
					char *convbuf = cp;
					PRINTANDPAD(cp, convbuf + ndig,
 804a007:	8d 84 24 cc 00 00 00 	lea    0xcc(%esp),%eax
 804a00e:	89 44 24 08          	mov    %eax,0x8(%esp)
 804a012:	8b 94 24 64 01 00 00 	mov    0x164(%esp),%edx
 804a019:	89 54 24 04          	mov    %edx,0x4(%esp)
 804a01d:	8b 84 24 60 01 00 00 	mov    0x160(%esp),%eax
 804a024:	89 04 24             	mov    %eax,(%esp)
 804a027:	e8 c0 52 00 00       	call   804f2ec <__sprint_r>
 804a02c:	85 c0                	test   %eax,%eax
 804a02e:	0f 85 9c f2 ff ff    	jne    80492d0 <_vfprintf_r+0x664>
 804a034:	8d bc 24 00 01 00 00 	lea    0x100(%esp),%edi
						    lead, zeroes);
					cp += lead;
 804a03b:	8b 6c 24 60          	mov    0x60(%esp),%ebp
 804a03f:	03 6c 24 78          	add    0x78(%esp),%ebp
					    }
					    if (cp > convbuf + ndig)
						cp = convbuf + ndig;
					}
#endif
					if (expt < ndig || flags & ALT)
 804a043:	8b 84 24 b0 00 00 00 	mov    0xb0(%esp),%eax
 804a04a:	3b 44 24 70          	cmp    0x70(%esp),%eax
 804a04e:	0f 8c e9 00 00 00    	jl     804a13d <_vfprintf_r+0x14d1>
 804a054:	f6 44 24 48 01       	testb  $0x1,0x48(%esp)
 804a059:	0f 85 de 00 00 00    	jne    804a13d <_vfprintf_r+0x14d1>
					    PRINT (decimal_point, decp_len);
					PRINTANDPAD (cp, convbuf + ndig,
 804a05f:	8b 54 24 50          	mov    0x50(%esp),%edx
 804a063:	29 ea                	sub    %ebp,%edx
 804a065:	8b 4c 24 70          	mov    0x70(%esp),%ecx
 804a069:	29 c1                	sub    %eax,%ecx
 804a06b:	89 c8                	mov    %ecx,%eax
 804a06d:	89 ce                	mov    %ecx,%esi
 804a06f:	39 d1                	cmp    %edx,%ecx
 804a071:	7e 02                	jle    804a075 <_vfprintf_r+0x1409>
 804a073:	89 d6                	mov    %edx,%esi
 804a075:	85 f6                	test   %esi,%esi
 804a077:	7e 27                	jle    804a0a0 <_vfprintf_r+0x1434>
 804a079:	89 2f                	mov    %ebp,(%edi)
 804a07b:	89 77 04             	mov    %esi,0x4(%edi)
 804a07e:	01 b4 24 d4 00 00 00 	add    %esi,0xd4(%esp)
 804a085:	8b 94 24 d0 00 00 00 	mov    0xd0(%esp),%edx
 804a08c:	42                   	inc    %edx
 804a08d:	89 94 24 d0 00 00 00 	mov    %edx,0xd0(%esp)
 804a094:	83 fa 07             	cmp    $0x7,%edx
 804a097:	0f 8f b7 07 00 00    	jg     804a854 <_vfprintf_r+0x1be8>
 804a09d:	83 c7 08             	add    $0x8,%edi
 804a0a0:	85 f6                	test   %esi,%esi
 804a0a2:	0f 88 a5 07 00 00    	js     804a84d <_vfprintf_r+0x1be1>
 804a0a8:	29 f0                	sub    %esi,%eax
 804a0aa:	89 c6                	mov    %eax,%esi
 804a0ac:	85 c0                	test   %eax,%eax
 804a0ae:	0f 8e 12 f0 ff ff    	jle    80490c6 <_vfprintf_r+0x45a>
 804a0b4:	8b 94 24 d0 00 00 00 	mov    0xd0(%esp),%edx
 804a0bb:	83 f8 10             	cmp    $0x10,%eax
 804a0be:	0f 8e b9 fe ff ff    	jle    8049f7d <_vfprintf_r+0x1311>
 804a0c4:	8d ac 24 cc 00 00 00 	lea    0xcc(%esp),%ebp
 804a0cb:	89 5c 24 50          	mov    %ebx,0x50(%esp)
 804a0cf:	89 f8                	mov    %edi,%eax
 804a0d1:	89 f7                	mov    %esi,%edi
 804a0d3:	8b 9c 24 60 01 00 00 	mov    0x160(%esp),%ebx
 804a0da:	8b b4 24 64 01 00 00 	mov    0x164(%esp),%esi
 804a0e1:	eb 10                	jmp    804a0f3 <_vfprintf_r+0x1487>
 804a0e3:	90                   	nop
 804a0e4:	83 c0 08             	add    $0x8,%eax
 804a0e7:	83 ef 10             	sub    $0x10,%edi
 804a0ea:	83 ff 10             	cmp    $0x10,%edi
 804a0ed:	0f 8e 82 fe ff ff    	jle    8049f75 <_vfprintf_r+0x1309>
 804a0f3:	c7 00 44 18 05 08    	movl   $0x8051844,(%eax)
 804a0f9:	c7 40 04 10 00 00 00 	movl   $0x10,0x4(%eax)
 804a100:	83 84 24 d4 00 00 00 	addl   $0x10,0xd4(%esp)
 804a107:	10 
 804a108:	42                   	inc    %edx
 804a109:	89 94 24 d0 00 00 00 	mov    %edx,0xd0(%esp)
 804a110:	83 fa 07             	cmp    $0x7,%edx
 804a113:	7e cf                	jle    804a0e4 <_vfprintf_r+0x1478>
 804a115:	89 6c 24 08          	mov    %ebp,0x8(%esp)
 804a119:	89 74 24 04          	mov    %esi,0x4(%esp)
 804a11d:	89 1c 24             	mov    %ebx,(%esp)
 804a120:	e8 c7 51 00 00       	call   804f2ec <__sprint_r>
 804a125:	85 c0                	test   %eax,%eax
 804a127:	0f 85 a3 f1 ff ff    	jne    80492d0 <_vfprintf_r+0x664>
 804a12d:	8d 84 24 00 01 00 00 	lea    0x100(%esp),%eax
 804a134:	8b 94 24 d0 00 00 00 	mov    0xd0(%esp),%edx
 804a13b:	eb aa                	jmp    804a0e7 <_vfprintf_r+0x147b>
					    if (cp > convbuf + ndig)
						cp = convbuf + ndig;
					}
#endif
					if (expt < ndig || flags & ALT)
					    PRINT (decimal_point, decp_len);
 804a13d:	8b 4c 24 74          	mov    0x74(%esp),%ecx
 804a141:	89 0f                	mov    %ecx,(%edi)
 804a143:	8b 54 24 7c          	mov    0x7c(%esp),%edx
 804a147:	89 57 04             	mov    %edx,0x4(%edi)
 804a14a:	01 94 24 d4 00 00 00 	add    %edx,0xd4(%esp)
 804a151:	8b 94 24 d0 00 00 00 	mov    0xd0(%esp),%edx
 804a158:	42                   	inc    %edx
 804a159:	89 94 24 d0 00 00 00 	mov    %edx,0xd0(%esp)
 804a160:	83 fa 07             	cmp    $0x7,%edx
 804a163:	0f 8f a4 06 00 00    	jg     804a80d <_vfprintf_r+0x1ba1>
 804a169:	83 c7 08             	add    $0x8,%edi
 804a16c:	e9 ee fe ff ff       	jmp    804a05f <_vfprintf_r+0x13f3>
					PRINTANDPAD (cp, convbuf + ndig,
						     ndig - expt, zeroes);
				}
			} else {	/* 'a', 'A', 'e', or 'E' */
				if (ndig > 1 || flags & ALT) {
 804a171:	f6 44 24 48 01       	testb  $0x1,0x48(%esp)
 804a176:	0f 85 6b f9 ff ff    	jne    8049ae7 <_vfprintf_r+0xe7b>
						PRINT (cp, ndig - 1);
					} else	/* 0.[0..] */
						/* __dtoa irregularity */
						PAD (ndig - 1, zeroes);
				} else	/* XeYYY */
					PRINT (cp, 1);
 804a17c:	89 07                	mov    %eax,(%edi)
 804a17e:	c7 47 04 01 00 00 00 	movl   $0x1,0x4(%edi)
 804a185:	ff 84 24 d4 00 00 00 	incl   0xd4(%esp)
 804a18c:	8b 94 24 d0 00 00 00 	mov    0xd0(%esp),%edx
 804a193:	42                   	inc    %edx
 804a194:	89 94 24 d0 00 00 00 	mov    %edx,0xd0(%esp)
 804a19b:	83 fa 07             	cmp    $0x7,%edx
 804a19e:	0f 8e e5 f9 ff ff    	jle    8049b89 <_vfprintf_r+0xf1d>
				if (ndig > 1 || flags & ALT) {
					PRINT (cp, 1);
					cp++;
					PRINT (decimal_point, decp_len);
					if (_fpvalue) {
						PRINT (cp, ndig - 1);
 804a1a4:	8d 84 24 cc 00 00 00 	lea    0xcc(%esp),%eax
 804a1ab:	89 44 24 08          	mov    %eax,0x8(%esp)
 804a1af:	8b 94 24 64 01 00 00 	mov    0x164(%esp),%edx
 804a1b6:	89 54 24 04          	mov    %edx,0x4(%esp)
 804a1ba:	8b 84 24 60 01 00 00 	mov    0x160(%esp),%eax
 804a1c1:	89 04 24             	mov    %eax,(%esp)
 804a1c4:	e8 23 51 00 00       	call   804f2ec <__sprint_r>
 804a1c9:	85 c0                	test   %eax,%eax
 804a1cb:	0f 85 ff f0 ff ff    	jne    80492d0 <_vfprintf_r+0x664>
 804a1d1:	8d bc 24 00 01 00 00 	lea    0x100(%esp),%edi
 804a1d8:	8b 94 24 d0 00 00 00 	mov    0xd0(%esp),%edx
 804a1df:	e9 a8 f9 ff ff       	jmp    8049b8c <_vfprintf_r+0xf20>
					PRINTANDPAD (cp, convbuf + ndig,
						     ndig - expt, zeroes);
				}
			} else {	/* 'a', 'A', 'e', or 'E' */
				if (ndig > 1 || flags & ALT) {
					PRINT (cp, 1);
 804a1e4:	8d 84 24 cc 00 00 00 	lea    0xcc(%esp),%eax
 804a1eb:	89 44 24 08          	mov    %eax,0x8(%esp)
 804a1ef:	8b 94 24 64 01 00 00 	mov    0x164(%esp),%edx
 804a1f6:	89 54 24 04          	mov    %edx,0x4(%esp)
 804a1fa:	8b 84 24 60 01 00 00 	mov    0x160(%esp),%eax
 804a201:	89 04 24             	mov    %eax,(%esp)
 804a204:	e8 e3 50 00 00       	call   804f2ec <__sprint_r>
 804a209:	85 c0                	test   %eax,%eax
 804a20b:	0f 85 bf f0 ff ff    	jne    80492d0 <_vfprintf_r+0x664>
 804a211:	8d bc 24 00 01 00 00 	lea    0x100(%esp),%edi
 804a218:	8b 94 24 d0 00 00 00 	mov    0xd0(%esp),%edx
 804a21f:	e9 ee f8 ff ff       	jmp    8049b12 <_vfprintf_r+0xea6>
 804a224:	8b 5c 24 50          	mov    0x50(%esp),%ebx
 804a228:	89 c7                	mov    %eax,%edi
					PRINT (decimal_point, decp_len);
					if (_fpvalue) {
						PRINT (cp, ndig - 1);
					} else	/* 0.[0..] */
						/* __dtoa irregularity */
						PAD (ndig - 1, zeroes);
 804a22a:	c7 07 44 18 05 08    	movl   $0x8051844,(%edi)
 804a230:	89 6f 04             	mov    %ebp,0x4(%edi)
 804a233:	01 ac 24 d4 00 00 00 	add    %ebp,0xd4(%esp)
 804a23a:	42                   	inc    %edx
 804a23b:	89 94 24 d0 00 00 00 	mov    %edx,0xd0(%esp)
 804a242:	83 fa 07             	cmp    $0x7,%edx
 804a245:	0f 8e 3e f9 ff ff    	jle    8049b89 <_vfprintf_r+0xf1d>
 804a24b:	e9 54 ff ff ff       	jmp    804a1a4 <_vfprintf_r+0x1538>
				}
			} else {	/* 'a', 'A', 'e', or 'E' */
				if (ndig > 1 || flags & ALT) {
					PRINT (cp, 1);
					cp++;
					PRINT (decimal_point, decp_len);
 804a250:	8d 84 24 cc 00 00 00 	lea    0xcc(%esp),%eax
 804a257:	89 44 24 08          	mov    %eax,0x8(%esp)
 804a25b:	8b 94 24 64 01 00 00 	mov    0x164(%esp),%edx
 804a262:	89 54 24 04          	mov    %edx,0x4(%esp)
 804a266:	8b 84 24 60 01 00 00 	mov    0x160(%esp),%eax
 804a26d:	89 04 24             	mov    %eax,(%esp)
 804a270:	e8 77 50 00 00       	call   804f2ec <__sprint_r>
 804a275:	85 c0                	test   %eax,%eax
 804a277:	0f 85 53 f0 ff ff    	jne    80492d0 <_vfprintf_r+0x664>
 804a27d:	8d bc 24 00 01 00 00 	lea    0x100(%esp),%edi
 804a284:	8b 94 24 d0 00 00 00 	mov    0xd0(%esp),%edx
 804a28b:	e9 aa f8 ff ff       	jmp    8049b3a <_vfprintf_r+0xece>
		if (flags & HEXPREFIX)
			PRINT (ox, 2);

		/* right-adjusting zero padding */
		if ((flags & (LADJUST|ZEROPAD)) == ZEROPAD)
			PAD (width - realsz, zeroes);
 804a290:	8d 84 24 cc 00 00 00 	lea    0xcc(%esp),%eax
 804a297:	89 44 24 08          	mov    %eax,0x8(%esp)
 804a29b:	8b 94 24 64 01 00 00 	mov    0x164(%esp),%edx
 804a2a2:	89 54 24 04          	mov    %edx,0x4(%esp)
 804a2a6:	8b 84 24 60 01 00 00 	mov    0x160(%esp),%eax
 804a2ad:	89 04 24             	mov    %eax,(%esp)
 804a2b0:	e8 37 50 00 00       	call   804f2ec <__sprint_r>
 804a2b5:	85 c0                	test   %eax,%eax
 804a2b7:	0f 85 13 f0 ff ff    	jne    80492d0 <_vfprintf_r+0x664>
 804a2bd:	8d bc 24 00 01 00 00 	lea    0x100(%esp),%edi
 804a2c4:	e9 fc ec ff ff       	jmp    8048fc5 <_vfprintf_r+0x359>
#else
			if ((long) _uquad < 0)
#endif
			{

				_uquad = -_uquad;
 804a2c9:	f7 d9                	neg    %ecx
				sign = '-';
 804a2cb:	c6 84 24 ad 00 00 00 	movb   $0x2d,0xad(%esp)
 804a2d2:	2d 
 804a2d3:	be 2d 00 00 00       	mov    $0x2d,%esi
			}
			base = DEC;
 804a2d8:	b0 01                	mov    $0x1,%al
 804a2da:	e9 43 f1 ff ff       	jmp    8049422 <_vfprintf_r+0x7b6>
					cp = "inf";
				size = 3;
				flags &= ~ZEROPAD;
				break;
			}
			if (isnan (_fpvalue)) {
 804a2df:	dd 84 24 80 00 00 00 	fldl   0x80(%esp)
 804a2e6:	dd 1c 24             	fstpl  (%esp)
 804a2e9:	e8 16 4e 00 00       	call   804f104 <__fpclassifyd>
 804a2ee:	85 c0                	test   %eax,%eax
 804a2f0:	0f 84 4f 03 00 00    	je     804a645 <_vfprintf_r+0x19d9>
				  }
				else
				  cp = buf;
			} else
# endif /* _WANT_IO_C99_FORMATS */
			if (prec == -1) {
 804a2f6:	83 fd ff             	cmp    $0xffffffff,%ebp
 804a2f9:	0f 84 bf 07 00 00    	je     804aabe <_vfprintf_r+0x1e52>
				prec = DEFPREC;
			} else if ((ch == 'g' || ch == 'G') && prec == 0) {
 804a2ff:	83 7c 24 68 67       	cmpl   $0x67,0x68(%esp)
 804a304:	0f 84 5b 07 00 00    	je     804aa65 <_vfprintf_r+0x1df9>
 804a30a:	83 7c 24 68 47       	cmpl   $0x47,0x68(%esp)
 804a30f:	0f 84 50 07 00 00    	je     804aa65 <_vfprintf_r+0x1df9>
				prec = 1;
			}

			flags |= FPT;
 804a315:	8b 4c 24 48          	mov    0x48(%esp),%ecx
 804a319:	80 cd 01             	or     $0x1,%ch
 804a31c:	89 4c 24 58          	mov    %ecx,0x58(%esp)
	int mode, dsgn;
	char *digits, *bp, *rve;
# ifdef _NO_LONGDBL
	union double_union tmp;

	tmp.d = value;
 804a320:	8b 94 24 84 00 00 00 	mov    0x84(%esp),%edx
	if (word0 (tmp) & Sign_bit) { /* this will check for < 0 and -0.0 */
		value = -value;
 804a327:	dd 84 24 80 00 00 00 	fldl   0x80(%esp)
	char *digits, *bp, *rve;
# ifdef _NO_LONGDBL
	union double_union tmp;

	tmp.d = value;
	if (word0 (tmp) & Sign_bit) { /* this will check for < 0 and -0.0 */
 804a32e:	85 d2                	test   %edx,%edx
 804a330:	0f 88 92 07 00 00    	js     804aac8 <_vfprintf_r+0x1e5c>
		value = -value;
		*sign = '-';
	} else
		*sign = '\000';
 804a336:	c6 44 24 64 00       	movb   $0x0,0x64(%esp)
		}
		*length = bp - buf;
		return buf;
	}
# endif /* _WANT_IO_C99_FORMATS */
	if (ch == 'f' || ch == 'F') {
 804a33b:	83 7c 24 68 66       	cmpl   $0x66,0x68(%esp)
 804a340:	0f 84 b2 06 00 00    	je     804a9f8 <_vfprintf_r+0x1d8c>
 804a346:	83 7c 24 68 46       	cmpl   $0x46,0x68(%esp)
 804a34b:	0f 84 a7 06 00 00    	je     804a9f8 <_vfprintf_r+0x1d8c>
	} else {
		/* To obtain ndigits after the decimal point for the 'e'
		 * and 'E' formats, round to ndigits + 1 significant
		 * figures.
		 */
		if (ch == 'e' || ch == 'E') {
 804a351:	83 7c 24 68 65       	cmpl   $0x65,0x68(%esp)
 804a356:	0f 84 78 07 00 00    	je     804aad4 <_vfprintf_r+0x1e68>
 804a35c:	83 7c 24 68 45       	cmpl   $0x45,0x68(%esp)
 804a361:	0f 84 6d 07 00 00    	je     804aad4 <_vfprintf_r+0x1e68>
 804a367:	89 ee                	mov    %ebp,%esi
			ndigits++;
		}
		mode = 2;		/* ndigits significant digits */
	}

	digits = _DTOA_R (data, value, mode, ndigits, decpt, &dsgn, &rve);
 804a369:	8d 84 24 b8 00 00 00 	lea    0xb8(%esp),%eax
 804a370:	89 44 24 1c          	mov    %eax,0x1c(%esp)
 804a374:	8d 84 24 b4 00 00 00 	lea    0xb4(%esp),%eax
 804a37b:	89 44 24 18          	mov    %eax,0x18(%esp)
				prec = 1;
			}

			flags |= FPT;

			cp = cvt (data, _fpvalue, prec, flags, &softsign,
 804a37f:	8d 84 24 b0 00 00 00 	lea    0xb0(%esp),%eax
 804a386:	89 44 24 14          	mov    %eax,0x14(%esp)
			ndigits++;
		}
		mode = 2;		/* ndigits significant digits */
	}

	digits = _DTOA_R (data, value, mode, ndigits, decpt, &dsgn, &rve);
 804a38a:	89 74 24 10          	mov    %esi,0x10(%esp)
 804a38e:	c7 44 24 0c 02 00 00 	movl   $0x2,0xc(%esp)
 804a395:	00 
 804a396:	dd 54 24 04          	fstl   0x4(%esp)
 804a39a:	8b 84 24 60 01 00 00 	mov    0x160(%esp),%eax
 804a3a1:	89 04 24             	mov    %eax,(%esp)
 804a3a4:	dd 5c 24 20          	fstpl  0x20(%esp)
 804a3a8:	e8 4b 0e 00 00       	call   804b1f8 <_dtoa_r>
 804a3ad:	89 44 24 60          	mov    %eax,0x60(%esp)

	if ((ch != 'g' && ch != 'G') || flags & ALT) {	/* Print trailing zeros */
 804a3b1:	83 7c 24 68 67       	cmpl   $0x67,0x68(%esp)
 804a3b6:	dd 44 24 20          	fldl   0x20(%esp)
 804a3ba:	74 07                	je     804a3c3 <_vfprintf_r+0x1757>
 804a3bc:	83 7c 24 68 47       	cmpl   $0x47,0x68(%esp)
 804a3c1:	75 0b                	jne    804a3ce <_vfprintf_r+0x1762>
 804a3c3:	f6 44 24 48 01       	testb  $0x1,0x48(%esp)
 804a3c8:	0f 84 b2 07 00 00    	je     804ab80 <_vfprintf_r+0x1f14>
		bp = digits + ndigits;
 804a3ce:	8b 54 24 60          	mov    0x60(%esp),%edx
 804a3d2:	01 f2                	add    %esi,%edx
		if (ch == 'f' || ch == 'F') {
 804a3d4:	83 7c 24 68 46       	cmpl   $0x46,0x68(%esp)
 804a3d9:	0f 84 6b 06 00 00    	je     804aa4a <_vfprintf_r+0x1dde>
			if (*digits == '0' && value)
				*decpt = -ndigits + 1;
			bp += *decpt;
		}
		if (value == 0)	/* kludge for __dtoa irregularity */
 804a3df:	d9 ee                	fldz   
 804a3e1:	d9 c9                	fxch   %st(1)
 804a3e3:	da e9                	fucompp 
 804a3e5:	df e0                	fnstsw %ax
 804a3e7:	80 e4 45             	and    $0x45,%ah
 804a3ea:	80 fc 40             	cmp    $0x40,%ah
 804a3ed:	74 20                	je     804a40f <_vfprintf_r+0x17a3>
			rve = bp;
		while (rve < bp)
 804a3ef:	8b 84 24 b8 00 00 00 	mov    0xb8(%esp),%eax
 804a3f6:	39 c2                	cmp    %eax,%edx
 804a3f8:	0f 86 c7 08 00 00    	jbe    804acc5 <_vfprintf_r+0x2059>
 804a3fe:	66 90                	xchg   %ax,%ax
			*rve++ = '0';
 804a400:	c6 00 30             	movb   $0x30,(%eax)
 804a403:	40                   	inc    %eax
 804a404:	89 84 24 b8 00 00 00 	mov    %eax,0xb8(%esp)
				*decpt = -ndigits + 1;
			bp += *decpt;
		}
		if (value == 0)	/* kludge for __dtoa irregularity */
			rve = bp;
		while (rve < bp)
 804a40b:	39 d0                	cmp    %edx,%eax
 804a40d:	75 f1                	jne    804a400 <_vfprintf_r+0x1794>
			*rve++ = '0';
	}
	*length = rve - digits;
 804a40f:	2b 54 24 60          	sub    0x60(%esp),%edx
 804a413:	89 54 24 70          	mov    %edx,0x70(%esp)
			flags |= FPT;

			cp = cvt (data, _fpvalue, prec, flags, &softsign,
				  &expt, ch, &ndig, cp);

			if (ch == 'g' || ch == 'G') {
 804a417:	83 7c 24 68 67       	cmpl   $0x67,0x68(%esp)
 804a41c:	0f 84 fe 04 00 00    	je     804a920 <_vfprintf_r+0x1cb4>
 804a422:	83 7c 24 68 47       	cmpl   $0x47,0x68(%esp)
 804a427:	0f 84 f3 04 00 00    	je     804a920 <_vfprintf_r+0x1cb4>
			}
# ifdef _WANT_IO_C99_FORMATS
			else if (ch == 'F')
				ch = 'f';
# endif
			if (ch <= 'e') {	/* 'a', 'A', 'e', or 'E' fmt */
 804a42d:	83 7c 24 68 66       	cmpl   $0x66,0x68(%esp)
 804a432:	0f 85 94 08 00 00    	jne    804accc <_vfprintf_r+0x2060>
# ifdef _WANT_IO_C99_FORMATS
				flags &= ~GROUPING;
# endif
			} else {
				if (ch == 'f') {		/* f fmt */
					if (expt > 0) {
 804a438:	8b 84 24 b0 00 00 00 	mov    0xb0(%esp),%eax
 804a43f:	85 c0                	test   %eax,%eax
 804a441:	0f 8e c0 07 00 00    	jle    804ac07 <_vfprintf_r+0x1f9b>
						size = expt;
						if (prec || flags & ALT)
 804a447:	85 ed                	test   %ebp,%ebp
 804a449:	0f 85 4c 07 00 00    	jne    804ab9b <_vfprintf_r+0x1f2f>
 804a44f:	f6 44 24 48 01       	testb  $0x1,0x48(%esp)
 804a454:	0f 85 41 07 00 00    	jne    804ab9b <_vfprintf_r+0x1f2f>
 804a45a:	89 44 24 4c          	mov    %eax,0x4c(%esp)
 804a45e:	89 44 24 50          	mov    %eax,0x50(%esp)
							nrepeats++;
					}
					size += (nseps + nrepeats) * thsnd_len;
				} else
# endif
					lead = expt;
 804a462:	89 44 24 78          	mov    %eax,0x78(%esp)
			}

			if (softsign)
 804a466:	80 7c 24 64 00       	cmpb   $0x0,0x64(%esp)
 804a46b:	0f 85 6e 04 00 00    	jne    804a8df <_vfprintf_r+0x1c73>
 804a471:	0f b6 b4 24 ad 00 00 	movzbl 0xad(%esp),%esi
 804a478:	00 
				prec = DEFPREC;
			} else if ((ch == 'g' || ch == 'G') && prec == 0) {
				prec = 1;
			}

			flags |= FPT;
 804a479:	8b 4c 24 58          	mov    0x58(%esp),%ecx
 804a47d:	89 4c 24 48          	mov    %ecx,0x48(%esp)
#endif
		fmt_anchor = fmt;
		fmt++;		/* skip over '%' */

		flags = 0;
		dprec = 0;
 804a481:	c7 44 24 6c 00 00 00 	movl   $0x0,0x6c(%esp)
 804a488:	00 
 804a489:	e9 fe ef ff ff       	jmp    804948c <_vfprintf_r+0x820>
		case 'G':
# ifdef _NO_LONGDBL
			if (flags & LONGDBL) {
				_fpvalue = (double) GET_ARG (N, ap, _LONG_DOUBLE);
			} else {
				_fpvalue = GET_ARG (N, ap, double);
 804a48e:	dd 01                	fldl   (%ecx)
 804a490:	dd 9c 24 80 00 00 00 	fstpl  0x80(%esp)
 804a497:	83 c1 08             	add    $0x8,%ecx
 804a49a:	89 8c 24 6c 01 00 00 	mov    %ecx,0x16c(%esp)
 804a4a1:	e9 71 f1 ff ff       	jmp    8049617 <_vfprintf_r+0x9ab>
		case 'X':
			xdigs = "0123456789ABCDEF";
			goto hex;
		case 'x':
			xdigs = "0123456789abcdef";
hex:			_uquad = UARG ();
 804a4a6:	8b 94 24 6c 01 00 00 	mov    0x16c(%esp),%edx
 804a4ad:	8b 0a                	mov    (%edx),%ecx
 804a4af:	83 c2 04             	add    $0x4,%edx
 804a4b2:	89 94 24 6c 01 00 00 	mov    %edx,0x16c(%esp)
 804a4b9:	e9 6a f0 ff ff       	jmp    8049528 <_vfprintf_r+0x8bc>
			continue;	/* no output */
		case 'O': /* extension */
			flags |= LONGINT;
			/*FALLTHROUGH*/
		case 'o':
			_uquad = UARG ();
 804a4be:	8b 94 24 6c 01 00 00 	mov    0x16c(%esp),%edx
 804a4c5:	8b 0a                	mov    (%edx),%ecx
 804a4c7:	83 c2 04             	add    $0x4,%edx
 804a4ca:	89 94 24 6c 01 00 00 	mov    %edx,0x16c(%esp)
			base = OCT;
 804a4d1:	31 c0                	xor    %eax,%eax
 804a4d3:	e9 40 ef ff ff       	jmp    8049418 <_vfprintf_r+0x7ac>
 804a4d8:	8b 5c 24 58          	mov    0x58(%esp),%ebx
 804a4dc:	89 fe                	mov    %edi,%esi
 804a4de:	89 c7                	mov    %eax,%edi
						PAD (-expt, zeroes);
						PRINT (cp, ndig);
					}
				} else {
					char *convbuf = cp;
					PRINTANDPAD(cp, convbuf + ndig,
 804a4e0:	c7 07 44 18 05 08    	movl   $0x8051844,(%edi)
 804a4e6:	89 77 04             	mov    %esi,0x4(%edi)
 804a4e9:	01 b4 24 d4 00 00 00 	add    %esi,0xd4(%esp)
 804a4f0:	42                   	inc    %edx
 804a4f1:	89 94 24 d0 00 00 00 	mov    %edx,0xd0(%esp)
 804a4f8:	83 fa 07             	cmp    $0x7,%edx
 804a4fb:	0f 8f 06 fb ff ff    	jg     804a007 <_vfprintf_r+0x139b>
 804a501:	83 c7 08             	add    $0x8,%edi
 804a504:	e9 32 fb ff ff       	jmp    804a03b <_vfprintf_r+0x13cf>
			PRINT (cp, size);
		} else {	/* glue together f_p fragments */
			if (ch >= 'f') {	/* 'f' or 'g' */
				if (_fpvalue == 0) {
					/* kludge for __dtoa irregularity */
					PRINT ("0", 1);
 804a509:	8d 84 24 cc 00 00 00 	lea    0xcc(%esp),%eax
 804a510:	89 44 24 08          	mov    %eax,0x8(%esp)
 804a514:	8b 94 24 64 01 00 00 	mov    0x164(%esp),%edx
 804a51b:	89 54 24 04          	mov    %edx,0x4(%esp)
 804a51f:	8b 84 24 60 01 00 00 	mov    0x160(%esp),%eax
 804a526:	89 04 24             	mov    %eax,(%esp)
 804a529:	e8 be 4d 00 00       	call   804f2ec <__sprint_r>
 804a52e:	85 c0                	test   %eax,%eax
 804a530:	0f 85 9a ed ff ff    	jne    80492d0 <_vfprintf_r+0x664>
 804a536:	8d bc 24 00 01 00 00 	lea    0x100(%esp),%edi
 804a53d:	e9 e9 f3 ff ff       	jmp    804992b <_vfprintf_r+0xcbf>
					if (expt < ndig || flags & ALT) {
						PRINT (decimal_point, decp_len);
						PAD (ndig - 1, zeroes);
					}
				} else if (expt <= 0) {
					PRINT ("0", 1);
 804a542:	c7 07 cd 16 05 08    	movl   $0x80516cd,(%edi)
 804a548:	c7 47 04 01 00 00 00 	movl   $0x1,0x4(%edi)
 804a54f:	ff 84 24 d4 00 00 00 	incl   0xd4(%esp)
 804a556:	8b 94 24 d0 00 00 00 	mov    0xd0(%esp),%edx
 804a55d:	42                   	inc    %edx
 804a55e:	89 94 24 d0 00 00 00 	mov    %edx,0xd0(%esp)
 804a565:	83 fa 07             	cmp    $0x7,%edx
 804a568:	0f 8f 2c 01 00 00    	jg     804a69a <_vfprintf_r+0x1a2e>
 804a56e:	83 c7 08             	add    $0x8,%edi
					if (expt || ndig || flags & ALT) {
 804a571:	85 f6                	test   %esi,%esi
 804a573:	75 13                	jne    804a588 <_vfprintf_r+0x191c>
 804a575:	8b 54 24 70          	mov    0x70(%esp),%edx
 804a579:	85 d2                	test   %edx,%edx
 804a57b:	75 0b                	jne    804a588 <_vfprintf_r+0x191c>
 804a57d:	f6 44 24 48 01       	testb  $0x1,0x48(%esp)
 804a582:	0f 84 3e eb ff ff    	je     80490c6 <_vfprintf_r+0x45a>
						PRINT (decimal_point, decp_len);
 804a588:	8b 4c 24 74          	mov    0x74(%esp),%ecx
 804a58c:	89 0f                	mov    %ecx,(%edi)
 804a58e:	8b 44 24 7c          	mov    0x7c(%esp),%eax
 804a592:	89 47 04             	mov    %eax,0x4(%edi)
 804a595:	01 84 24 d4 00 00 00 	add    %eax,0xd4(%esp)
 804a59c:	8b 94 24 d0 00 00 00 	mov    0xd0(%esp),%edx
 804a5a3:	42                   	inc    %edx
 804a5a4:	89 94 24 d0 00 00 00 	mov    %edx,0xd0(%esp)
 804a5ab:	83 fa 07             	cmp    $0x7,%edx
 804a5ae:	0f 8f c3 04 00 00    	jg     804aa77 <_vfprintf_r+0x1e0b>
 804a5b4:	83 c7 08             	add    $0x8,%edi
						PAD (-expt, zeroes);
 804a5b7:	f7 de                	neg    %esi
 804a5b9:	85 f6                	test   %esi,%esi
 804a5bb:	0f 8e cf 01 00 00    	jle    804a790 <_vfprintf_r+0x1b24>
 804a5c1:	83 fe 10             	cmp    $0x10,%esi
 804a5c4:	0f 8e 1d 02 00 00    	jle    804a7e7 <_vfprintf_r+0x1b7b>
 804a5ca:	8d ac 24 cc 00 00 00 	lea    0xcc(%esp),%ebp
 804a5d1:	89 5c 24 50          	mov    %ebx,0x50(%esp)
 804a5d5:	89 f8                	mov    %edi,%eax
 804a5d7:	89 f7                	mov    %esi,%edi
 804a5d9:	8b 9c 24 60 01 00 00 	mov    0x160(%esp),%ebx
 804a5e0:	8b b4 24 64 01 00 00 	mov    0x164(%esp),%esi
 804a5e7:	eb 12                	jmp    804a5fb <_vfprintf_r+0x198f>
 804a5e9:	8d 76 00             	lea    0x0(%esi),%esi
 804a5ec:	83 c0 08             	add    $0x8,%eax
 804a5ef:	83 ef 10             	sub    $0x10,%edi
 804a5f2:	83 ff 10             	cmp    $0x10,%edi
 804a5f5:	0f 8e e4 01 00 00    	jle    804a7df <_vfprintf_r+0x1b73>
 804a5fb:	c7 00 44 18 05 08    	movl   $0x8051844,(%eax)
 804a601:	c7 40 04 10 00 00 00 	movl   $0x10,0x4(%eax)
 804a608:	83 84 24 d4 00 00 00 	addl   $0x10,0xd4(%esp)
 804a60f:	10 
 804a610:	42                   	inc    %edx
 804a611:	89 94 24 d0 00 00 00 	mov    %edx,0xd0(%esp)
 804a618:	83 fa 07             	cmp    $0x7,%edx
 804a61b:	7e cf                	jle    804a5ec <_vfprintf_r+0x1980>
 804a61d:	89 6c 24 08          	mov    %ebp,0x8(%esp)
 804a621:	89 74 24 04          	mov    %esi,0x4(%esp)
 804a625:	89 1c 24             	mov    %ebx,(%esp)
 804a628:	e8 bf 4c 00 00       	call   804f2ec <__sprint_r>
 804a62d:	85 c0                	test   %eax,%eax
 804a62f:	0f 85 9b ec ff ff    	jne    80492d0 <_vfprintf_r+0x664>
 804a635:	8d 84 24 00 01 00 00 	lea    0x100(%esp),%eax
 804a63c:	8b 94 24 d0 00 00 00 	mov    0xd0(%esp),%edx
 804a643:	eb aa                	jmp    804a5ef <_vfprintf_r+0x1983>
				size = 3;
				flags &= ~ZEROPAD;
				break;
			}
			if (isnan (_fpvalue)) {
				if (ch <= 'G') /* 'A', 'E', 'F', or 'G' */
 804a645:	83 7c 24 68 47       	cmpl   $0x47,0x68(%esp)
 804a64a:	0f 8f b1 02 00 00    	jg     804a901 <_vfprintf_r+0x1c95>
					cp = "NAN";
 804a650:	c7 44 24 60 9c 16 05 	movl   $0x805169c,0x60(%esp)
 804a657:	08 
				else
					cp = "nan";
				size = 3;
				flags &= ~ZEROPAD;
 804a658:	81 64 24 48 7f ff ff 	andl   $0xffffff7f,0x48(%esp)
 804a65f:	ff 
 804a660:	0f b6 b4 24 ad 00 00 	movzbl 0xad(%esp),%esi
 804a667:	00 
				break;
 804a668:	c7 44 24 4c 03 00 00 	movl   $0x3,0x4c(%esp)
 804a66f:	00 
			if (isnan (_fpvalue)) {
				if (ch <= 'G') /* 'A', 'E', 'F', or 'G' */
					cp = "NAN";
				else
					cp = "nan";
				size = 3;
 804a670:	c7 44 24 50 03 00 00 	movl   $0x3,0x50(%esp)
 804a677:	00 
#endif
		fmt_anchor = fmt;
		fmt++;		/* skip over '%' */

		flags = 0;
		dprec = 0;
 804a678:	c7 44 24 6c 00 00 00 	movl   $0x0,0x6c(%esp)
 804a67f:	00 
		width = 0;
		prec = -1;
		sign = '\0';
#ifdef FLOATING_POINT
		lead = 0;
 804a680:	c7 44 24 78 00 00 00 	movl   $0x0,0x78(%esp)
 804a687:	00 
					cp = "NAN";
				else
					cp = "nan";
				size = 3;
				flags &= ~ZEROPAD;
				break;
 804a688:	e9 ff ed ff ff       	jmp    804948c <_vfprintf_r+0x820>
			 */
			if (isinf (_fpvalue)) {
				if (_fpvalue < 0)
					sign = '-';
				if (ch <= 'G') /* 'A', 'E', 'F', or 'G' */
					cp = "INF";
 804a68d:	c7 44 24 60 94 16 05 	movl   $0x8051694,0x60(%esp)
 804a694:	08 
 804a695:	e9 c6 ef ff ff       	jmp    8049660 <_vfprintf_r+0x9f4>
					if (expt < ndig || flags & ALT) {
						PRINT (decimal_point, decp_len);
						PAD (ndig - 1, zeroes);
					}
				} else if (expt <= 0) {
					PRINT ("0", 1);
 804a69a:	8d 84 24 cc 00 00 00 	lea    0xcc(%esp),%eax
 804a6a1:	89 44 24 08          	mov    %eax,0x8(%esp)
 804a6a5:	8b 94 24 64 01 00 00 	mov    0x164(%esp),%edx
 804a6ac:	89 54 24 04          	mov    %edx,0x4(%esp)
 804a6b0:	8b 84 24 60 01 00 00 	mov    0x160(%esp),%eax
 804a6b7:	89 04 24             	mov    %eax,(%esp)
 804a6ba:	e8 2d 4c 00 00       	call   804f2ec <__sprint_r>
 804a6bf:	85 c0                	test   %eax,%eax
 804a6c1:	0f 85 09 ec ff ff    	jne    80492d0 <_vfprintf_r+0x664>
 804a6c7:	8b b4 24 b0 00 00 00 	mov    0xb0(%esp),%esi
 804a6ce:	8d bc 24 00 01 00 00 	lea    0x100(%esp),%edi
 804a6d5:	e9 97 fe ff ff       	jmp    804a571 <_vfprintf_r+0x1905>
			if (ch >= 'f') {	/* 'f' or 'g' */
				if (_fpvalue == 0) {
					/* kludge for __dtoa irregularity */
					PRINT ("0", 1);
					if (expt < ndig || flags & ALT) {
						PRINT (decimal_point, decp_len);
 804a6da:	8d 84 24 cc 00 00 00 	lea    0xcc(%esp),%eax
 804a6e1:	89 44 24 08          	mov    %eax,0x8(%esp)
 804a6e5:	8b 94 24 64 01 00 00 	mov    0x164(%esp),%edx
 804a6ec:	89 54 24 04          	mov    %edx,0x4(%esp)
 804a6f0:	8b 84 24 60 01 00 00 	mov    0x160(%esp),%eax
 804a6f7:	89 04 24             	mov    %eax,(%esp)
 804a6fa:	e8 ed 4b 00 00       	call   804f2ec <__sprint_r>
 804a6ff:	85 c0                	test   %eax,%eax
 804a701:	0f 85 c9 eb ff ff    	jne    80492d0 <_vfprintf_r+0x664>
 804a707:	8d bc 24 00 01 00 00 	lea    0x100(%esp),%edi
 804a70e:	e9 5f f2 ff ff       	jmp    8049972 <_vfprintf_r+0xd06>
 804a713:	8b 44 24 44          	mov    0x44(%esp),%eax
 804a717:	2b 44 24 60          	sub    0x60(%esp),%eax
 804a71b:	89 44 24 50          	mov    %eax,0x50(%esp)
 804a71f:	e9 4c ed ff ff       	jmp    8049470 <_vfprintf_r+0x804>
					if (size > prec)
						size = prec;
				} else
					size = prec;
			} else
				size = strlen (cp);
 804a724:	8b 44 24 60          	mov    0x60(%esp),%eax
 804a728:	89 04 24             	mov    %eax,(%esp)
 804a72b:	89 54 24 20          	mov    %edx,0x20(%esp)
 804a72f:	e8 bc e4 ff ff       	call   8048bf0 <strlen>
 804a734:	89 44 24 50          	mov    %eax,0x50(%esp)
 804a738:	89 44 24 4c          	mov    %eax,0x4c(%esp)
 804a73c:	85 c0                	test   %eax,%eax
 804a73e:	8b 54 24 20          	mov    0x20(%esp),%edx
 804a742:	0f 89 6c ec ff ff    	jns    80493b4 <_vfprintf_r+0x748>
 804a748:	c7 44 24 4c 00 00 00 	movl   $0x0,0x4c(%esp)
 804a74f:	00 
 804a750:	e9 5f ec ff ff       	jmp    80493b4 <_vfprintf_r+0x748>
					}
				} else if (expt <= 0) {
					PRINT ("0", 1);
					if (expt || ndig || flags & ALT) {
						PRINT (decimal_point, decp_len);
						PAD (-expt, zeroes);
 804a755:	8d 84 24 cc 00 00 00 	lea    0xcc(%esp),%eax
 804a75c:	89 44 24 08          	mov    %eax,0x8(%esp)
 804a760:	8b 94 24 64 01 00 00 	mov    0x164(%esp),%edx
 804a767:	89 54 24 04          	mov    %edx,0x4(%esp)
 804a76b:	8b 84 24 60 01 00 00 	mov    0x160(%esp),%eax
 804a772:	89 04 24             	mov    %eax,(%esp)
 804a775:	e8 72 4b 00 00       	call   804f2ec <__sprint_r>
 804a77a:	85 c0                	test   %eax,%eax
 804a77c:	0f 85 4e eb ff ff    	jne    80492d0 <_vfprintf_r+0x664>
 804a782:	8d bc 24 00 01 00 00 	lea    0x100(%esp),%edi
 804a789:	8b 94 24 d0 00 00 00 	mov    0xd0(%esp),%edx
						PRINT (cp, ndig);
 804a790:	8b 44 24 60          	mov    0x60(%esp),%eax
 804a794:	89 07                	mov    %eax,(%edi)
 804a796:	8b 4c 24 70          	mov    0x70(%esp),%ecx
 804a79a:	e9 fd f3 ff ff       	jmp    8049b9c <_vfprintf_r+0xf30>
					}
				} else {
					char *convbuf = cp;
					PRINTANDPAD(cp, convbuf + ndig,
 804a79f:	8d 84 24 cc 00 00 00 	lea    0xcc(%esp),%eax
 804a7a6:	89 44 24 08          	mov    %eax,0x8(%esp)
 804a7aa:	8b 94 24 64 01 00 00 	mov    0x164(%esp),%edx
 804a7b1:	89 54 24 04          	mov    %edx,0x4(%esp)
 804a7b5:	8b 84 24 60 01 00 00 	mov    0x160(%esp),%eax
 804a7bc:	89 04 24             	mov    %eax,(%esp)
 804a7bf:	e8 28 4b 00 00       	call   804f2ec <__sprint_r>
 804a7c4:	85 c0                	test   %eax,%eax
 804a7c6:	0f 85 04 eb ff ff    	jne    80492d0 <_vfprintf_r+0x664>
 804a7cc:	8d bc 24 00 01 00 00 	lea    0x100(%esp),%edi
 804a7d3:	e9 f8 f5 ff ff       	jmp    8049dd0 <_vfprintf_r+0x1164>
 804a7d8:	31 f6                	xor    %esi,%esi
 804a7da:	e9 f9 f5 ff ff       	jmp    8049dd8 <_vfprintf_r+0x116c>
 804a7df:	8b 5c 24 50          	mov    0x50(%esp),%ebx
 804a7e3:	89 fe                	mov    %edi,%esi
 804a7e5:	89 c7                	mov    %eax,%edi
					}
				} else if (expt <= 0) {
					PRINT ("0", 1);
					if (expt || ndig || flags & ALT) {
						PRINT (decimal_point, decp_len);
						PAD (-expt, zeroes);
 804a7e7:	c7 07 44 18 05 08    	movl   $0x8051844,(%edi)
 804a7ed:	89 77 04             	mov    %esi,0x4(%edi)
 804a7f0:	01 b4 24 d4 00 00 00 	add    %esi,0xd4(%esp)
 804a7f7:	42                   	inc    %edx
 804a7f8:	89 94 24 d0 00 00 00 	mov    %edx,0xd0(%esp)
 804a7ff:	83 fa 07             	cmp    $0x7,%edx
 804a802:	0f 8f 4d ff ff ff    	jg     804a755 <_vfprintf_r+0x1ae9>
 804a808:	83 c7 08             	add    $0x8,%edi
 804a80b:	eb 83                	jmp    804a790 <_vfprintf_r+0x1b24>
					    if (cp > convbuf + ndig)
						cp = convbuf + ndig;
					}
#endif
					if (expt < ndig || flags & ALT)
					    PRINT (decimal_point, decp_len);
 804a80d:	8d 84 24 cc 00 00 00 	lea    0xcc(%esp),%eax
 804a814:	89 44 24 08          	mov    %eax,0x8(%esp)
 804a818:	8b 94 24 64 01 00 00 	mov    0x164(%esp),%edx
 804a81f:	89 54 24 04          	mov    %edx,0x4(%esp)
 804a823:	8b 84 24 60 01 00 00 	mov    0x160(%esp),%eax
 804a82a:	89 04 24             	mov    %eax,(%esp)
 804a82d:	e8 ba 4a 00 00       	call   804f2ec <__sprint_r>
 804a832:	85 c0                	test   %eax,%eax
 804a834:	0f 85 96 ea ff ff    	jne    80492d0 <_vfprintf_r+0x664>
 804a83a:	8b 84 24 b0 00 00 00 	mov    0xb0(%esp),%eax
 804a841:	8d bc 24 00 01 00 00 	lea    0x100(%esp),%edi
 804a848:	e9 12 f8 ff ff       	jmp    804a05f <_vfprintf_r+0x13f3>
					PRINTANDPAD (cp, convbuf + ndig,
 804a84d:	31 f6                	xor    %esi,%esi
 804a84f:	e9 54 f8 ff ff       	jmp    804a0a8 <_vfprintf_r+0x143c>
 804a854:	8d 84 24 cc 00 00 00 	lea    0xcc(%esp),%eax
 804a85b:	89 44 24 08          	mov    %eax,0x8(%esp)
 804a85f:	8b 94 24 64 01 00 00 	mov    0x164(%esp),%edx
 804a866:	89 54 24 04          	mov    %edx,0x4(%esp)
 804a86a:	8b 84 24 60 01 00 00 	mov    0x160(%esp),%eax
 804a871:	89 04 24             	mov    %eax,(%esp)
 804a874:	e8 73 4a 00 00       	call   804f2ec <__sprint_r>
 804a879:	85 c0                	test   %eax,%eax
 804a87b:	0f 85 4f ea ff ff    	jne    80492d0 <_vfprintf_r+0x664>
 804a881:	8b 44 24 70          	mov    0x70(%esp),%eax
 804a885:	2b 84 24 b0 00 00 00 	sub    0xb0(%esp),%eax
 804a88c:	8d bc 24 00 01 00 00 	lea    0x100(%esp),%edi
 804a893:	e9 08 f8 ff ff       	jmp    804a0a0 <_vfprintf_r+0x1434>
			   NULL string when precision is not 0.
			   However, if we are not optimizing for size,
			   we might as well mirror glibc behavior.  */
			if (cp == NULL) {
				cp = "(null)";
				size = ((unsigned) prec > 6U) ? 6 : prec;
 804a898:	89 6c 24 50          	mov    %ebp,0x50(%esp)
 804a89c:	83 fd 06             	cmp    $0x6,%ebp
 804a89f:	76 08                	jbe    804a8a9 <_vfprintf_r+0x1c3d>
 804a8a1:	c7 44 24 50 06 00 00 	movl   $0x6,0x50(%esp)
 804a8a8:	00 
 804a8a9:	8b 44 24 50          	mov    0x50(%esp),%eax
 804a8ad:	89 44 24 4c          	mov    %eax,0x4c(%esp)
 804a8b1:	85 c0                	test   %eax,%eax
 804a8b3:	0f 88 d5 02 00 00    	js     804ab8e <_vfprintf_r+0x1f22>
			goto nosign;
		case 's':
#ifdef _WANT_IO_C99_FORMATS
		case 'S':
#endif
			cp = GET_ARG (N, ap, char_ptr_t);
 804a8b9:	89 94 24 6c 01 00 00 	mov    %edx,0x16c(%esp)
			   NULL string when precision is not 0.
			   However, if we are not optimizing for size,
			   we might as well mirror glibc behavior.  */
			if (cp == NULL) {
				cp = "(null)";
				size = ((unsigned) prec > 6U) ? 6 : prec;
 804a8c0:	31 f6                	xor    %esi,%esi
#endif
		fmt_anchor = fmt;
		fmt++;		/* skip over '%' */

		flags = 0;
		dprec = 0;
 804a8c2:	c7 44 24 6c 00 00 00 	movl   $0x0,0x6c(%esp)
 804a8c9:	00 
		width = 0;
		prec = -1;
		sign = '\0';
#ifdef FLOATING_POINT
		lead = 0;
 804a8ca:	c7 44 24 78 00 00 00 	movl   $0x0,0x78(%esp)
 804a8d1:	00 
			/* Behavior is undefined if the user passed a
			   NULL string when precision is not 0.
			   However, if we are not optimizing for size,
			   we might as well mirror glibc behavior.  */
			if (cp == NULL) {
				cp = "(null)";
 804a8d2:	c7 44 24 60 c6 16 05 	movl   $0x80516c6,0x60(%esp)
 804a8d9:	08 
 804a8da:	e9 6d e5 ff ff       	jmp    8048e4c <_vfprintf_r+0x1e0>
# endif
					lead = expt;
			}

			if (softsign)
				sign = '-';
 804a8df:	c6 84 24 ad 00 00 00 	movb   $0x2d,0xad(%esp)
 804a8e6:	2d 
				prec = DEFPREC;
			} else if ((ch == 'g' || ch == 'G') && prec == 0) {
				prec = 1;
			}

			flags |= FPT;
 804a8e7:	8b 4c 24 58          	mov    0x58(%esp),%ecx
 804a8eb:	89 4c 24 48          	mov    %ecx,0x48(%esp)
# endif
					lead = expt;
			}

			if (softsign)
				sign = '-';
 804a8ef:	be 2d 00 00 00       	mov    $0x2d,%esi
#endif
		fmt_anchor = fmt;
		fmt++;		/* skip over '%' */

		flags = 0;
		dprec = 0;
 804a8f4:	c7 44 24 6c 00 00 00 	movl   $0x0,0x6c(%esp)
 804a8fb:	00 
 804a8fc:	e9 95 eb ff ff       	jmp    8049496 <_vfprintf_r+0x82a>
			}
			if (isnan (_fpvalue)) {
				if (ch <= 'G') /* 'A', 'E', 'F', or 'G' */
					cp = "NAN";
				else
					cp = "nan";
 804a901:	c7 44 24 60 a0 16 05 	movl   $0x80516a0,0x60(%esp)
 804a908:	08 
 804a909:	e9 4a fd ff ff       	jmp    804a658 <_vfprintf_r+0x19ec>
			   zeros are not permitted.  Otherwise, scanf
			   could not read what printf wrote.
			 */
			if (isinf (_fpvalue)) {
				if (_fpvalue < 0)
					sign = '-';
 804a90e:	c6 84 24 ad 00 00 00 	movb   $0x2d,0xad(%esp)
 804a915:	2d 
 804a916:	be 2d 00 00 00       	mov    $0x2d,%esi
 804a91b:	e9 2d ed ff ff       	jmp    804964d <_vfprintf_r+0x9e1>

			cp = cvt (data, _fpvalue, prec, flags, &softsign,
				  &expt, ch, &ndig, cp);

			if (ch == 'g' || ch == 'G') {
				if (expt <= -4 || expt > prec)
 804a920:	8b 84 24 b0 00 00 00 	mov    0xb0(%esp),%eax
 804a927:	89 c1                	mov    %eax,%ecx
 804a929:	83 f8 fd             	cmp    $0xfffffffd,%eax
 804a92c:	7c 08                	jl     804a936 <_vfprintf_r+0x1cca>
 804a92e:	39 c5                	cmp    %eax,%ebp
 804a930:	0f 8d 90 00 00 00    	jge    804a9c6 <_vfprintf_r+0x1d5a>
					ch -= 2; /* 'e' or 'E' */
 804a936:	83 6c 24 68 02       	subl   $0x2,0x68(%esp)
# ifdef _WANT_IO_C99_FORMATS
			else if (ch == 'F')
				ch = 'f';
# endif
			if (ch <= 'e') {	/* 'a', 'A', 'e', or 'E' fmt */
				--expt;
 804a93b:	49                   	dec    %ecx
 804a93c:	89 8c 24 b0 00 00 00 	mov    %ecx,0xb0(%esp)
# else
#  define isa 0
# endif

	p = p0;
	*p++ = isa ? 'p' - 'a' + fmtch : fmtch;
 804a943:	8a 54 24 68          	mov    0x68(%esp),%dl
 804a947:	88 94 24 be 00 00 00 	mov    %dl,0xbe(%esp)
	if (exp < 0) {
 804a94e:	85 c9                	test   %ecx,%ecx
 804a950:	0f 88 d2 02 00 00    	js     804ac28 <_vfprintf_r+0x1fbc>
		exp = -exp;
		*p++ = '-';
	}
	else
		*p++ = '+';
 804a956:	c6 84 24 bf 00 00 00 	movb   $0x2b,0xbf(%esp)
 804a95d:	2b 
	t = expbuf + MAXEXPLEN;
	if (exp > 9) {
 804a95e:	83 f9 09             	cmp    $0x9,%ecx
 804a961:	0f 8f a3 01 00 00    	jg     804ab0a <_vfprintf_r+0x1e9e>
		*--t = to_char (exp);
		for (; t < expbuf + MAXEXPLEN; *p++ = *t++);
	}
	else {
		if (!isa)
			*p++ = '0';
 804a967:	c6 84 24 c0 00 00 00 	movb   $0x30,0xc0(%esp)
 804a96e:	30 
		*p++ = to_char (exp);
 804a96f:	83 c1 30             	add    $0x30,%ecx
 804a972:	88 8c 24 c1 00 00 00 	mov    %cl,0xc1(%esp)
 804a979:	8d 84 24 c2 00 00 00 	lea    0xc2(%esp),%eax
			else if (ch == 'F')
				ch = 'f';
# endif
			if (ch <= 'e') {	/* 'a', 'A', 'e', or 'E' fmt */
				--expt;
				expsize = exponent (expstr, expt, ch);
 804a980:	8d 94 24 be 00 00 00 	lea    0xbe(%esp),%edx
	else {
		if (!isa)
			*p++ = '0';
		*p++ = to_char (exp);
	}
	return (p - p0);
 804a987:	29 d0                	sub    %edx,%eax
 804a989:	89 84 24 88 00 00 00 	mov    %eax,0x88(%esp)
				ch = 'f';
# endif
			if (ch <= 'e') {	/* 'a', 'A', 'e', or 'E' fmt */
				--expt;
				expsize = exponent (expstr, expt, ch);
				size = expsize + ndig;
 804a990:	8b 54 24 70          	mov    0x70(%esp),%edx
 804a994:	01 c2                	add    %eax,%edx
 804a996:	89 54 24 50          	mov    %edx,0x50(%esp)
				if (ndig > 1 || flags & ALT)
 804a99a:	83 7c 24 70 01       	cmpl   $0x1,0x70(%esp)
 804a99f:	0f 8e e3 02 00 00    	jle    804ac88 <_vfprintf_r+0x201c>
					++size;
 804a9a5:	ff 44 24 50          	incl   0x50(%esp)
 804a9a9:	8b 44 24 50          	mov    0x50(%esp),%eax
 804a9ad:	89 44 24 4c          	mov    %eax,0x4c(%esp)
 804a9b1:	85 c0                	test   %eax,%eax
 804a9b3:	0f 88 e6 02 00 00    	js     804ac9f <_vfprintf_r+0x2033>
		dprec = 0;
		width = 0;
		prec = -1;
		sign = '\0';
#ifdef FLOATING_POINT
		lead = 0;
 804a9b9:	c7 44 24 78 00 00 00 	movl   $0x0,0x78(%esp)
 804a9c0:	00 
 804a9c1:	e9 a0 fa ff ff       	jmp    804a466 <_vfprintf_r+0x17fa>
							size += prec + 1;
					} else	/* "0.X" */
						size = (prec || flags & ALT)
							  ? prec + 2
							  : 1;
				} else if (expt >= ndig) { /* fixed g fmt */
 804a9c6:	3b 44 24 70          	cmp    0x70(%esp),%eax
 804a9ca:	0f 8c 0c 01 00 00    	jl     804aadc <_vfprintf_r+0x1e70>
					size = expt;
					if (flags & ALT)
 804a9d0:	f6 44 24 48 01       	testb  $0x1,0x48(%esp)
 804a9d5:	0f 85 0c 02 00 00    	jne    804abe7 <_vfprintf_r+0x1f7b>
 804a9db:	89 44 24 4c          	mov    %eax,0x4c(%esp)
 804a9df:	85 c0                	test   %eax,%eax
 804a9e1:	0f 88 c5 02 00 00    	js     804acac <_vfprintf_r+0x2040>
 804a9e7:	89 4c 24 50          	mov    %ecx,0x50(%esp)
 804a9eb:	c7 44 24 68 67 00 00 	movl   $0x67,0x68(%esp)
 804a9f2:	00 
 804a9f3:	e9 6a fa ff ff       	jmp    804a462 <_vfprintf_r+0x17f6>
			ndigits++;
		}
		mode = 2;		/* ndigits significant digits */
	}

	digits = _DTOA_R (data, value, mode, ndigits, decpt, &dsgn, &rve);
 804a9f8:	8d 84 24 b8 00 00 00 	lea    0xb8(%esp),%eax
 804a9ff:	89 44 24 1c          	mov    %eax,0x1c(%esp)
 804aa03:	8d 84 24 b4 00 00 00 	lea    0xb4(%esp),%eax
 804aa0a:	89 44 24 18          	mov    %eax,0x18(%esp)
				prec = 1;
			}

			flags |= FPT;

			cp = cvt (data, _fpvalue, prec, flags, &softsign,
 804aa0e:	8d 84 24 b0 00 00 00 	lea    0xb0(%esp),%eax
 804aa15:	89 44 24 14          	mov    %eax,0x14(%esp)
			ndigits++;
		}
		mode = 2;		/* ndigits significant digits */
	}

	digits = _DTOA_R (data, value, mode, ndigits, decpt, &dsgn, &rve);
 804aa19:	89 6c 24 10          	mov    %ebp,0x10(%esp)
 804aa1d:	c7 44 24 0c 03 00 00 	movl   $0x3,0xc(%esp)
 804aa24:	00 
 804aa25:	dd 54 24 04          	fstl   0x4(%esp)
 804aa29:	8b 84 24 60 01 00 00 	mov    0x160(%esp),%eax
 804aa30:	89 04 24             	mov    %eax,(%esp)
 804aa33:	dd 5c 24 20          	fstpl  0x20(%esp)
 804aa37:	e8 bc 07 00 00       	call   804b1f8 <_dtoa_r>
 804aa3c:	89 44 24 60          	mov    %eax,0x60(%esp)

	if ((ch != 'g' && ch != 'G') || flags & ALT) {	/* Print trailing zeros */
		bp = digits + ndigits;
 804aa40:	89 c2                	mov    %eax,%edx
 804aa42:	01 ea                	add    %ebp,%edx
 804aa44:	89 ee                	mov    %ebp,%esi
 804aa46:	dd 44 24 20          	fldl   0x20(%esp)
		if (ch == 'f' || ch == 'F') {
			if (*digits == '0' && value)
 804aa4a:	8b 44 24 60          	mov    0x60(%esp),%eax
 804aa4e:	80 38 30             	cmpb   $0x30,(%eax)
 804aa51:	0f 84 65 01 00 00    	je     804abbc <_vfprintf_r+0x1f50>
 804aa57:	8b 84 24 b0 00 00 00 	mov    0xb0(%esp),%eax
				*decpt = -ndigits + 1;
			bp += *decpt;
 804aa5e:	01 c2                	add    %eax,%edx
 804aa60:	e9 7a f9 ff ff       	jmp    804a3df <_vfprintf_r+0x1773>
				  cp = buf;
			} else
# endif /* _WANT_IO_C99_FORMATS */
			if (prec == -1) {
				prec = DEFPREC;
			} else if ((ch == 'g' || ch == 'G') && prec == 0) {
 804aa65:	85 ed                	test   %ebp,%ebp
 804aa67:	0f 85 a8 f8 ff ff    	jne    804a315 <_vfprintf_r+0x16a9>
				prec = 1;
 804aa6d:	bd 01 00 00 00       	mov    $0x1,%ebp
 804aa72:	e9 9e f8 ff ff       	jmp    804a315 <_vfprintf_r+0x16a9>
						PAD (ndig - 1, zeroes);
					}
				} else if (expt <= 0) {
					PRINT ("0", 1);
					if (expt || ndig || flags & ALT) {
						PRINT (decimal_point, decp_len);
 804aa77:	8d 84 24 cc 00 00 00 	lea    0xcc(%esp),%eax
 804aa7e:	89 44 24 08          	mov    %eax,0x8(%esp)
 804aa82:	8b 94 24 64 01 00 00 	mov    0x164(%esp),%edx
 804aa89:	89 54 24 04          	mov    %edx,0x4(%esp)
 804aa8d:	8b 84 24 60 01 00 00 	mov    0x160(%esp),%eax
 804aa94:	89 04 24             	mov    %eax,(%esp)
 804aa97:	e8 50 48 00 00       	call   804f2ec <__sprint_r>
 804aa9c:	85 c0                	test   %eax,%eax
 804aa9e:	0f 85 2c e8 ff ff    	jne    80492d0 <_vfprintf_r+0x664>
 804aaa4:	8b b4 24 b0 00 00 00 	mov    0xb0(%esp),%esi
 804aaab:	8d bc 24 00 01 00 00 	lea    0x100(%esp),%edi
 804aab2:	8b 94 24 d0 00 00 00 	mov    0xd0(%esp),%edx
 804aab9:	e9 f9 fa ff ff       	jmp    804a5b7 <_vfprintf_r+0x194b>
				else
				  cp = buf;
			} else
# endif /* _WANT_IO_C99_FORMATS */
			if (prec == -1) {
				prec = DEFPREC;
 804aabe:	bd 06 00 00 00       	mov    $0x6,%ebp
 804aac3:	e9 4d f8 ff ff       	jmp    804a315 <_vfprintf_r+0x16a9>
# ifdef _NO_LONGDBL
	union double_union tmp;

	tmp.d = value;
	if (word0 (tmp) & Sign_bit) { /* this will check for < 0 and -0.0 */
		value = -value;
 804aac8:	d9 e0                	fchs   
		*sign = '-';
 804aaca:	c6 44 24 64 2d       	movb   $0x2d,0x64(%esp)
 804aacf:	e9 67 f8 ff ff       	jmp    804a33b <_vfprintf_r+0x16cf>
		/* To obtain ndigits after the decimal point for the 'e'
		 * and 'E' formats, round to ndigits + 1 significant
		 * figures.
		 */
		if (ch == 'e' || ch == 'E') {
			ndigits++;
 804aad4:	8d 75 01             	lea    0x1(%ebp),%esi
 804aad7:	e9 8d f8 ff ff       	jmp    804a369 <_vfprintf_r+0x16fd>
					size = expt;
					if (flags & ALT)
						++size;
				} else
					size = ndig + (expt > 0 ?
						1 : 2 - expt);
 804aadc:	85 c0                	test   %eax,%eax
 804aade:	0f 8e 53 01 00 00    	jle    804ac37 <_vfprintf_r+0x1fcb>
 804aae4:	ba 01 00 00 00       	mov    $0x1,%edx
				} else if (expt >= ndig) { /* fixed g fmt */
					size = expt;
					if (flags & ALT)
						++size;
				} else
					size = ndig + (expt > 0 ?
 804aae9:	03 54 24 70          	add    0x70(%esp),%edx
 804aaed:	89 54 24 50          	mov    %edx,0x50(%esp)
 804aaf1:	89 54 24 4c          	mov    %edx,0x4c(%esp)
 804aaf5:	85 d2                	test   %edx,%edx
 804aaf7:	0f 88 fd 00 00 00    	js     804abfa <_vfprintf_r+0x1f8e>
 804aafd:	c7 44 24 68 67 00 00 	movl   $0x67,0x68(%esp)
 804ab04:	00 
 804ab05:	e9 58 f9 ff ff       	jmp    804a462 <_vfprintf_r+0x17f6>
		exp = -exp;
		*p++ = '-';
	}
	else
		*p++ = '+';
	t = expbuf + MAXEXPLEN;
 804ab0a:	8d ac 24 cc 00 00 00 	lea    0xcc(%esp),%ebp
 804ab11:	89 ee                	mov    %ebp,%esi
	if (exp > 9) {
		do {
			*--t = to_char (exp % 10);
		} while ((exp /= 10) > 9);
 804ab13:	89 5c 24 50          	mov    %ebx,0x50(%esp)
	else
		*p++ = '+';
	t = expbuf + MAXEXPLEN;
	if (exp > 9) {
		do {
			*--t = to_char (exp % 10);
 804ab17:	4e                   	dec    %esi
 804ab18:	89 c8                	mov    %ecx,%eax
 804ab1a:	bb 0a 00 00 00       	mov    $0xa,%ebx
 804ab1f:	99                   	cltd   
 804ab20:	f7 fb                	idiv   %ebx
 804ab22:	89 54 24 4c          	mov    %edx,0x4c(%esp)
 804ab26:	8a 54 24 4c          	mov    0x4c(%esp),%dl
 804ab2a:	83 c2 30             	add    $0x30,%edx
 804ab2d:	88 16                	mov    %dl,(%esi)
		} while ((exp /= 10) > 9);
 804ab2f:	b8 67 66 66 66       	mov    $0x66666667,%eax
 804ab34:	f7 e9                	imul   %ecx
 804ab36:	c1 fa 02             	sar    $0x2,%edx
 804ab39:	c1 f9 1f             	sar    $0x1f,%ecx
 804ab3c:	29 ca                	sub    %ecx,%edx
 804ab3e:	89 d1                	mov    %edx,%ecx
 804ab40:	83 fa 09             	cmp    $0x9,%edx
 804ab43:	7f d2                	jg     804ab17 <_vfprintf_r+0x1eab>
 804ab45:	8b 5c 24 50          	mov    0x50(%esp),%ebx
		*--t = to_char (exp);
 804ab49:	8d 46 ff             	lea    -0x1(%esi),%eax
 804ab4c:	83 c1 30             	add    $0x30,%ecx
 804ab4f:	88 4e ff             	mov    %cl,-0x1(%esi)
		for (; t < expbuf + MAXEXPLEN; *p++ = *t++);
 804ab52:	39 e8                	cmp    %ebp,%eax
 804ab54:	0f 83 5f 01 00 00    	jae    804acb9 <_vfprintf_r+0x204d>
 804ab5a:	8d 94 24 c0 00 00 00 	lea    0xc0(%esp),%edx
 804ab61:	eb 03                	jmp    804ab66 <_vfprintf_r+0x1efa>
 804ab63:	90                   	nop
 804ab64:	8a 08                	mov    (%eax),%cl
 804ab66:	88 0a                	mov    %cl,(%edx)
 804ab68:	42                   	inc    %edx
 804ab69:	40                   	inc    %eax
 804ab6a:	39 e8                	cmp    %ebp,%eax
 804ab6c:	75 f6                	jne    804ab64 <_vfprintf_r+0x1ef8>
               _ATTRIBUTE ((__format__ (__printf__, 3, 0))));
int	_EXFUN(_vfiprintf_r, (struct _reent *, FILE *, const char *, __VALIST)
               _ATTRIBUTE ((__format__ (__printf__, 3, 0))));
int	_EXFUN(_vfiscanf_r, (struct _reent *, FILE *, const char *, __VALIST)
               _ATTRIBUTE ((__format__ (__scanf__, 3, 0))));
int	_EXFUN(_vfprintf_r, (struct _reent *, FILE *__restrict, const char *__restrict, __VALIST)
 804ab6e:	8d 84 24 40 01 00 00 	lea    0x140(%esp),%eax
 804ab75:	29 f0                	sub    %esi,%eax
 804ab77:	8d 44 04 4d          	lea    0x4d(%esp,%eax,1),%eax
 804ab7b:	e9 00 fe ff ff       	jmp    804a980 <_vfprintf_r+0x1d14>
 804ab80:	dd d8                	fstp   %st(0)
 804ab82:	8b 94 24 b8 00 00 00 	mov    0xb8(%esp),%edx
 804ab89:	e9 81 f8 ff ff       	jmp    804a40f <_vfprintf_r+0x17a3>
 804ab8e:	c7 44 24 4c 00 00 00 	movl   $0x0,0x4c(%esp)
 804ab95:	00 
 804ab96:	e9 1e fd ff ff       	jmp    804a8b9 <_vfprintf_r+0x1c4d>
			} else {
				if (ch == 'f') {		/* f fmt */
					if (expt > 0) {
						size = expt;
						if (prec || flags & ALT)
							size += prec + 1;
 804ab9b:	8d 6c 05 01          	lea    0x1(%ebp,%eax,1),%ebp
 804ab9f:	89 6c 24 50          	mov    %ebp,0x50(%esp)
 804aba3:	89 6c 24 4c          	mov    %ebp,0x4c(%esp)
 804aba7:	85 ed                	test   %ebp,%ebp
 804aba9:	0f 89 b3 f8 ff ff    	jns    804a462 <_vfprintf_r+0x17f6>
 804abaf:	c7 44 24 4c 00 00 00 	movl   $0x0,0x4c(%esp)
 804abb6:	00 
					} else	/* "0.X" */
						size = (prec || flags & ALT)
							  ? prec + 2
							  : 1;
 804abb7:	e9 a6 f8 ff ff       	jmp    804a462 <_vfprintf_r+0x17f6>
	digits = _DTOA_R (data, value, mode, ndigits, decpt, &dsgn, &rve);

	if ((ch != 'g' && ch != 'G') || flags & ALT) {	/* Print trailing zeros */
		bp = digits + ndigits;
		if (ch == 'f' || ch == 'F') {
			if (*digits == '0' && value)
 804abbc:	d9 ee                	fldz   
 804abbe:	d9 c9                	fxch   %st(1)
 804abc0:	dd e1                	fucom  %st(1)
 804abc2:	df e0                	fnstsw %ax
 804abc4:	dd d9                	fstp   %st(1)
 804abc6:	80 e4 45             	and    $0x45,%ah
 804abc9:	80 f4 40             	xor    $0x40,%ah
 804abcc:	0f 84 85 fe ff ff    	je     804aa57 <_vfprintf_r+0x1deb>
				*decpt = -ndigits + 1;
 804abd2:	b8 01 00 00 00       	mov    $0x1,%eax
 804abd7:	29 f0                	sub    %esi,%eax
 804abd9:	89 84 24 b0 00 00 00 	mov    %eax,0xb0(%esp)
			bp += *decpt;
 804abe0:	01 c2                	add    %eax,%edx
 804abe2:	e9 f8 f7 ff ff       	jmp    804a3df <_vfprintf_r+0x1773>
							  ? prec + 2
							  : 1;
				} else if (expt >= ndig) { /* fixed g fmt */
					size = expt;
					if (flags & ALT)
						++size;
 804abe7:	8d 50 01             	lea    0x1(%eax),%edx
 804abea:	89 54 24 50          	mov    %edx,0x50(%esp)
 804abee:	89 54 24 4c          	mov    %edx,0x4c(%esp)
 804abf2:	85 d2                	test   %edx,%edx
 804abf4:	0f 89 03 ff ff ff    	jns    804aafd <_vfprintf_r+0x1e91>
 804abfa:	c7 44 24 4c 00 00 00 	movl   $0x0,0x4c(%esp)
 804ac01:	00 
 804ac02:	e9 f6 fe ff ff       	jmp    804aafd <_vfprintf_r+0x1e91>
						if (prec || flags & ALT)
							size += prec + 1;
					} else	/* "0.X" */
						size = (prec || flags & ALT)
							  ? prec + 2
							  : 1;
 804ac07:	85 ed                	test   %ebp,%ebp
 804ac09:	75 38                	jne    804ac43 <_vfprintf_r+0x1fd7>
					if (expt > 0) {
						size = expt;
						if (prec || flags & ALT)
							size += prec + 1;
					} else	/* "0.X" */
						size = (prec || flags & ALT)
 804ac0b:	f6 44 24 48 01       	testb  $0x1,0x48(%esp)
 804ac10:	75 31                	jne    804ac43 <_vfprintf_r+0x1fd7>
 804ac12:	c7 44 24 4c 01 00 00 	movl   $0x1,0x4c(%esp)
 804ac19:	00 
							  ? prec + 2
							  : 1;
 804ac1a:	c7 44 24 50 01 00 00 	movl   $0x1,0x50(%esp)
 804ac21:	00 
 804ac22:	e9 3b f8 ff ff       	jmp    804a462 <_vfprintf_r+0x17f6>
 804ac27:	90                   	nop
# endif

	p = p0;
	*p++ = isa ? 'p' - 'a' + fmtch : fmtch;
	if (exp < 0) {
		exp = -exp;
 804ac28:	f7 d9                	neg    %ecx
		*p++ = '-';
 804ac2a:	c6 84 24 bf 00 00 00 	movb   $0x2d,0xbf(%esp)
 804ac31:	2d 
 804ac32:	e9 27 fd ff ff       	jmp    804a95e <_vfprintf_r+0x1cf2>
					size = expt;
					if (flags & ALT)
						++size;
				} else
					size = ndig + (expt > 0 ?
						1 : 2 - expt);
 804ac37:	ba 02 00 00 00       	mov    $0x2,%edx
 804ac3c:	29 c2                	sub    %eax,%edx
 804ac3e:	e9 a6 fe ff ff       	jmp    804aae9 <_vfprintf_r+0x1e7d>
						if (prec || flags & ALT)
							size += prec + 1;
					} else	/* "0.X" */
						size = (prec || flags & ALT)
							  ? prec + 2
							  : 1;
 804ac43:	83 c5 02             	add    $0x2,%ebp
 804ac46:	89 6c 24 50          	mov    %ebp,0x50(%esp)
 804ac4a:	89 6c 24 4c          	mov    %ebp,0x4c(%esp)
 804ac4e:	85 ed                	test   %ebp,%ebp
 804ac50:	0f 89 0c f8 ff ff    	jns    804a462 <_vfprintf_r+0x17f6>
 804ac56:	e9 54 ff ff ff       	jmp    804abaf <_vfprintf_r+0x1f43>
 804ac5b:	90                   	nop
						fmt = old_fmt;
						goto rflag;
					}
				}
#endif /* !_NO_POS_ARGS */
				prec = GET_ARG (n, ap, int);
 804ac5c:	8b 84 24 6c 01 00 00 	mov    0x16c(%esp),%eax
 804ac63:	83 c0 04             	add    $0x4,%eax
 804ac66:	8b 94 24 6c 01 00 00 	mov    0x16c(%esp),%edx
 804ac6d:	8b 2a                	mov    (%edx),%ebp
#ifndef _NO_POS_ARGS
				is_pos_arg = old_is_pos_arg;
#endif
				if (prec < 0)
 804ac6f:	85 ed                	test   %ebp,%ebp
 804ac71:	0f 89 60 e8 ff ff    	jns    80494d7 <_vfprintf_r+0x86b>
						fmt = old_fmt;
						goto rflag;
					}
				}
#endif /* !_NO_POS_ARGS */
				prec = GET_ARG (n, ap, int);
 804ac77:	89 84 24 6c 01 00 00 	mov    %eax,0x16c(%esp)
#ifndef _NO_POS_ARGS
				is_pos_arg = old_is_pos_arg;
#endif
				if (prec < 0)
					prec = -1;
 804ac7e:	bd ff ff ff ff       	mov    $0xffffffff,%ebp
 804ac83:	e9 65 e1 ff ff       	jmp    8048ded <_vfprintf_r+0x181>
# endif
			if (ch <= 'e') {	/* 'a', 'A', 'e', or 'E' fmt */
				--expt;
				expsize = exponent (expstr, expt, ch);
				size = expsize + ndig;
				if (ndig > 1 || flags & ALT)
 804ac88:	f6 44 24 48 01       	testb  $0x1,0x48(%esp)
 804ac8d:	0f 85 12 fd ff ff    	jne    804a9a5 <_vfprintf_r+0x1d39>
 804ac93:	89 54 24 4c          	mov    %edx,0x4c(%esp)
 804ac97:	85 d2                	test   %edx,%edx
 804ac99:	0f 89 1a fd ff ff    	jns    804a9b9 <_vfprintf_r+0x1d4d>
 804ac9f:	c7 44 24 4c 00 00 00 	movl   $0x0,0x4c(%esp)
 804aca6:	00 
 804aca7:	e9 0d fd ff ff       	jmp    804a9b9 <_vfprintf_r+0x1d4d>
 804acac:	c7 44 24 4c 00 00 00 	movl   $0x0,0x4c(%esp)
 804acb3:	00 
 804acb4:	e9 2e fd ff ff       	jmp    804a9e7 <_vfprintf_r+0x1d7b>
	if (exp > 9) {
		do {
			*--t = to_char (exp % 10);
		} while ((exp /= 10) > 9);
		*--t = to_char (exp);
		for (; t < expbuf + MAXEXPLEN; *p++ = *t++);
 804acb9:	8d 84 24 c0 00 00 00 	lea    0xc0(%esp),%eax
 804acc0:	e9 bb fc ff ff       	jmp    804a980 <_vfprintf_r+0x1d14>
				*decpt = -ndigits + 1;
			bp += *decpt;
		}
		if (value == 0)	/* kludge for __dtoa irregularity */
			rve = bp;
		while (rve < bp)
 804acc5:	89 c2                	mov    %eax,%edx
 804acc7:	e9 43 f7 ff ff       	jmp    804a40f <_vfprintf_r+0x17a3>
 804accc:	8b 8c 24 b0 00 00 00 	mov    0xb0(%esp),%ecx
 804acd3:	e9 63 fc ff ff       	jmp    804a93b <_vfprintf_r+0x1ccf>

0804acd8 <__sbprintf>:
_DEFUN(__sbprintf, (rptr, fp, fmt, ap),
       struct _reent *rptr _AND
       register FILE *fp   _AND
       _CONST char *fmt  _AND
       va_list ap)
{
 804acd8:	55                   	push   %ebp
 804acd9:	57                   	push   %edi
 804acda:	56                   	push   %esi
 804acdb:	53                   	push   %ebx
 804acdc:	81 ec 8c 04 00 00    	sub    $0x48c,%esp
 804ace2:	89 c7                	mov    %eax,%edi
 804ace4:	89 d3                	mov    %edx,%ebx
	int ret;
	FILE fake;
	unsigned char buf[BUFSIZ];

	/* copy the important variables */
	fake._flags = fp->_flags & ~__SNBF;
 804ace6:	8b 52 0c             	mov    0xc(%edx),%edx
 804ace9:	83 e2 fd             	and    $0xfffffffd,%edx
 804acec:	66 89 54 24 24       	mov    %dx,0x24(%esp)
	fake._flags2 = fp->_flags2;
 804acf1:	8b 43 64             	mov    0x64(%ebx),%eax
 804acf4:	89 44 24 7c          	mov    %eax,0x7c(%esp)
	fake._file = fp->_file;
 804acf8:	66 8b 43 0e          	mov    0xe(%ebx),%ax
 804acfc:	66 89 44 24 26       	mov    %ax,0x26(%esp)
	fake._cookie = fp->_cookie;
 804ad01:	8b 43 1c             	mov    0x1c(%ebx),%eax
 804ad04:	89 44 24 34          	mov    %eax,0x34(%esp)
	fake._write = fp->_write;
 804ad08:	8b 43 24             	mov    0x24(%ebx),%eax
 804ad0b:	89 44 24 3c          	mov    %eax,0x3c(%esp)

	/* set up the buffer */
	fake._bf._base = fake._p = buf;
 804ad0f:	8d 84 24 80 00 00 00 	lea    0x80(%esp),%eax
 804ad16:	89 44 24 18          	mov    %eax,0x18(%esp)
 804ad1a:	89 44 24 28          	mov    %eax,0x28(%esp)
	fake._bf._size = fake._w = sizeof (buf);
 804ad1e:	c7 44 24 20 00 04 00 	movl   $0x400,0x20(%esp)
 804ad25:	00 
 804ad26:	c7 44 24 2c 00 04 00 	movl   $0x400,0x2c(%esp)
 804ad2d:	00 
	fake._lbfsize = 0;	/* not actually used, but Just In Case */
 804ad2e:	c7 44 24 30 00 00 00 	movl   $0x0,0x30(%esp)
 804ad35:	00 
#ifndef __SINGLE_THREAD__
	__lock_init_recursive (fake._lock);
#endif

	/* do the work, then copy any error status */
	ret = _VFPRINTF_R (rptr, &fake, fmt, ap);
 804ad36:	8b 84 24 a0 04 00 00 	mov    0x4a0(%esp),%eax
 804ad3d:	89 44 24 0c          	mov    %eax,0xc(%esp)
 804ad41:	89 4c 24 08          	mov    %ecx,0x8(%esp)
 804ad45:	8d 6c 24 18          	lea    0x18(%esp),%ebp
 804ad49:	89 6c 24 04          	mov    %ebp,0x4(%esp)
 804ad4d:	89 3c 24             	mov    %edi,(%esp)
 804ad50:	e8 17 df ff ff       	call   8048c6c <_vfprintf_r>
 804ad55:	89 c6                	mov    %eax,%esi
	if (ret >= 0 && _fflush_r (rptr, &fake))
 804ad57:	85 c0                	test   %eax,%eax
 804ad59:	78 10                	js     804ad6b <__sbprintf+0x93>
 804ad5b:	89 6c 24 04          	mov    %ebp,0x4(%esp)
 804ad5f:	89 3c 24             	mov    %edi,(%esp)
 804ad62:	e8 59 19 00 00       	call   804c6c0 <_fflush_r>
 804ad67:	85 c0                	test   %eax,%eax
 804ad69:	75 19                	jne    804ad84 <__sbprintf+0xac>
		ret = EOF;
	if (fake._flags & __SERR)
 804ad6b:	f6 44 24 24 40       	testb  $0x40,0x24(%esp)
 804ad70:	74 05                	je     804ad77 <__sbprintf+0x9f>
		fp->_flags |= __SERR;
 804ad72:	66 83 4b 0c 40       	orw    $0x40,0xc(%ebx)

#ifndef __SINGLE_THREAD__
	__lock_close_recursive (fake._lock);
#endif
	return (ret);
}
 804ad77:	89 f0                	mov    %esi,%eax
 804ad79:	81 c4 8c 04 00 00    	add    $0x48c,%esp
 804ad7f:	5b                   	pop    %ebx
 804ad80:	5e                   	pop    %esi
 804ad81:	5f                   	pop    %edi
 804ad82:	5d                   	pop    %ebp
 804ad83:	c3                   	ret    
#endif

	/* do the work, then copy any error status */
	ret = _VFPRINTF_R (rptr, &fake, fmt, ap);
	if (ret >= 0 && _fflush_r (rptr, &fake))
		ret = EOF;
 804ad84:	be ff ff ff ff       	mov    $0xffffffff,%esi
 804ad89:	eb e0                	jmp    804ad6b <__sbprintf+0x93>
 804ad8b:	90                   	nop

0804ad8c <vfprintf>:
int
_DEFUN(VFPRINTF, (fp, fmt0, ap),
       FILE * fp         _AND
       _CONST char *fmt0 _AND
       va_list ap)
{
 804ad8c:	83 ec 1c             	sub    $0x1c,%esp
  int result;
  result = _VFPRINTF_R (_REENT, fp, fmt0, ap);
 804ad8f:	8b 44 24 28          	mov    0x28(%esp),%eax
 804ad93:	89 44 24 0c          	mov    %eax,0xc(%esp)
 804ad97:	8b 44 24 24          	mov    0x24(%esp),%eax
 804ad9b:	89 44 24 08          	mov    %eax,0x8(%esp)
 804ad9f:	8b 44 24 20          	mov    0x20(%esp),%eax
 804ada3:	89 44 24 04          	mov    %eax,0x4(%esp)
 804ada7:	a1 40 40 05 08       	mov    0x8054040,%eax
 804adac:	89 04 24             	mov    %eax,(%esp)
 804adaf:	e8 b8 de ff ff       	call   8048c6c <_vfprintf_r>
  return result;
}
 804adb4:	83 c4 1c             	add    $0x1c,%esp
 804adb7:	c3                   	ret    

0804adb8 <__swsetup_r>:

int
_DEFUN(__swsetup_r, (ptr, fp),
       struct _reent *ptr _AND
       register FILE * fp)
{
 804adb8:	53                   	push   %ebx
 804adb9:	83 ec 18             	sub    $0x18,%esp
 804adbc:	8b 5c 24 24          	mov    0x24(%esp),%ebx
  /* Make sure stdio is set up.  */

  CHECK_INIT (_REENT, fp);
 804adc0:	a1 40 40 05 08       	mov    0x8054040,%eax
 804adc5:	85 c0                	test   %eax,%eax
 804adc7:	74 0b                	je     804add4 <__swsetup_r+0x1c>
 804adc9:	8b 50 38             	mov    0x38(%eax),%edx
 804adcc:	85 d2                	test   %edx,%edx
 804adce:	0f 84 9c 00 00 00    	je     804ae70 <__swsetup_r+0xb8>

  /*
   * If we are not writing, we had better be reading and writing.
   */

  if ((fp->_flags & __SWR) == 0)
 804add4:	8b 43 0c             	mov    0xc(%ebx),%eax
 804add7:	a8 08                	test   $0x8,%al
 804add9:	74 25                	je     804ae00 <__swsetup_r+0x48>
 804addb:	8b 53 10             	mov    0x10(%ebx),%edx
  /*
   * Make a buffer if necessary, then set _w.
   * A string I/O file should not explicitly allocate a buffer
   * unless asprintf is being used.
   */
  if (fp->_bf._base == NULL
 804adde:	85 d2                	test   %edx,%edx
 804ade0:	74 38                	je     804ae1a <__swsetup_r+0x62>
        && (!(fp->_flags & __SSTR) || (fp->_flags & __SMBF)))
    __smakebuf_r (ptr, fp);

  if (fp->_flags & __SLBF)
 804ade2:	a8 01                	test   $0x1,%al
 804ade4:	75 5e                	jne    804ae44 <__swsetup_r+0x8c>
       */
      fp->_w = 0;
      fp->_lbfsize = -fp->_bf._size;
    }
  else
    fp->_w = fp->_flags & __SNBF ? 0 : fp->_bf._size;
 804ade6:	a8 02                	test   $0x2,%al
 804ade8:	0f 85 92 00 00 00    	jne    804ae80 <__swsetup_r+0xc8>
 804adee:	8b 43 14             	mov    0x14(%ebx),%eax
 804adf1:	89 43 08             	mov    %eax,0x8(%ebx)

  if (!fp->_bf._base && (fp->_flags & __SMBF))
 804adf4:	85 d2                	test   %edx,%edx
 804adf6:	74 5f                	je     804ae57 <__swsetup_r+0x9f>
    {
      /* __smakebuf_r set errno, but not flag */
      fp->_flags |= __SERR;
      return EOF;
    }
  return 0;
 804adf8:	31 c0                	xor    %eax,%eax
}
 804adfa:	83 c4 18             	add    $0x18,%esp
 804adfd:	5b                   	pop    %ebx
 804adfe:	c3                   	ret    
 804adff:	90                   	nop
   * If we are not writing, we had better be reading and writing.
   */

  if ((fp->_flags & __SWR) == 0)
    {
      if ((fp->_flags & __SRW) == 0)
 804ae00:	a8 10                	test   $0x10,%al
 804ae02:	0f 84 bc 00 00 00    	je     804aec4 <__swsetup_r+0x10c>
        {
	  ptr->_errno = EBADF;
	  fp->_flags |= __SERR;
	  return EOF;
        }
      if (fp->_flags & __SRD)
 804ae08:	a8 04                	test   $0x4,%al
 804ae0a:	75 7c                	jne    804ae88 <__swsetup_r+0xd0>
 804ae0c:	8b 53 10             	mov    0x10(%ebx),%edx
	    FREEUB (ptr, fp);
	  fp->_flags &= ~(__SRD | __SEOF);
	  fp->_r = 0;
	  fp->_p = fp->_bf._base;
	}
      fp->_flags |= __SWR;
 804ae0f:	83 c8 08             	or     $0x8,%eax
 804ae12:	66 89 43 0c          	mov    %ax,0xc(%ebx)
  /*
   * Make a buffer if necessary, then set _w.
   * A string I/O file should not explicitly allocate a buffer
   * unless asprintf is being used.
   */
  if (fp->_bf._base == NULL
 804ae16:	85 d2                	test   %edx,%edx
 804ae18:	75 c8                	jne    804ade2 <__swsetup_r+0x2a>
        && (!(fp->_flags & __SSTR) || (fp->_flags & __SMBF)))
 804ae1a:	89 c1                	mov    %eax,%ecx
 804ae1c:	81 e1 80 02 00 00    	and    $0x280,%ecx
 804ae22:	66 81 f9 00 02       	cmp    $0x200,%cx
 804ae27:	74 b9                	je     804ade2 <__swsetup_r+0x2a>
    __smakebuf_r (ptr, fp);
 804ae29:	89 5c 24 04          	mov    %ebx,0x4(%esp)
 804ae2d:	8b 54 24 20          	mov    0x20(%esp),%edx
 804ae31:	89 14 24             	mov    %edx,(%esp)
 804ae34:	e8 27 25 00 00       	call   804d360 <__smakebuf_r>
 804ae39:	8b 43 0c             	mov    0xc(%ebx),%eax
 804ae3c:	8b 53 10             	mov    0x10(%ebx),%edx
 804ae3f:	eb a1                	jmp    804ade2 <__swsetup_r+0x2a>
 804ae41:	8d 76 00             	lea    0x0(%esi),%esi
      /*
       * It is line buffered, so make _lbfsize be -_bufsize
       * for the putc() macro.  We will change _lbfsize back
       * to 0 whenever we turn off __SWR.
       */
      fp->_w = 0;
 804ae44:	c7 43 08 00 00 00 00 	movl   $0x0,0x8(%ebx)
      fp->_lbfsize = -fp->_bf._size;
 804ae4b:	8b 43 14             	mov    0x14(%ebx),%eax
 804ae4e:	f7 d8                	neg    %eax
 804ae50:	89 43 18             	mov    %eax,0x18(%ebx)
    }
  else
    fp->_w = fp->_flags & __SNBF ? 0 : fp->_bf._size;

  if (!fp->_bf._base && (fp->_flags & __SMBF))
 804ae53:	85 d2                	test   %edx,%edx
 804ae55:	75 a1                	jne    804adf8 <__swsetup_r+0x40>
 804ae57:	8b 53 0c             	mov    0xc(%ebx),%edx
    {
      /* __smakebuf_r set errno, but not flag */
      fp->_flags |= __SERR;
      return EOF;
    }
  return 0;
 804ae5a:	31 c0                	xor    %eax,%eax
      fp->_lbfsize = -fp->_bf._size;
    }
  else
    fp->_w = fp->_flags & __SNBF ? 0 : fp->_bf._size;

  if (!fp->_bf._base && (fp->_flags & __SMBF))
 804ae5c:	f6 c2 80             	test   $0x80,%dl
 804ae5f:	74 99                	je     804adfa <__swsetup_r+0x42>
    {
      /* __smakebuf_r set errno, but not flag */
      fp->_flags |= __SERR;
 804ae61:	83 ca 40             	or     $0x40,%edx
 804ae64:	66 89 53 0c          	mov    %dx,0xc(%ebx)
      return EOF;
 804ae68:	b8 ff ff ff ff       	mov    $0xffffffff,%eax
 804ae6d:	eb 8b                	jmp    804adfa <__swsetup_r+0x42>
 804ae6f:	90                   	nop
       struct _reent *ptr _AND
       register FILE * fp)
{
  /* Make sure stdio is set up.  */

  CHECK_INIT (_REENT, fp);
 804ae70:	89 04 24             	mov    %eax,(%esp)
 804ae73:	e8 ec 19 00 00       	call   804c864 <__sinit>
 804ae78:	e9 57 ff ff ff       	jmp    804add4 <__swsetup_r+0x1c>
 804ae7d:	8d 76 00             	lea    0x0(%esi),%esi
       */
      fp->_w = 0;
      fp->_lbfsize = -fp->_bf._size;
    }
  else
    fp->_w = fp->_flags & __SNBF ? 0 : fp->_bf._size;
 804ae80:	31 c0                	xor    %eax,%eax
 804ae82:	e9 6a ff ff ff       	jmp    804adf1 <__swsetup_r+0x39>
 804ae87:	90                   	nop
	  return EOF;
        }
      if (fp->_flags & __SRD)
	{
	  /* clobber any ungetc data */
	  if (HASUB (fp))
 804ae88:	8b 53 30             	mov    0x30(%ebx),%edx
 804ae8b:	85 d2                	test   %edx,%edx
 804ae8d:	74 21                	je     804aeb0 <__swsetup_r+0xf8>
	    FREEUB (ptr, fp);
 804ae8f:	8d 4b 40             	lea    0x40(%ebx),%ecx
 804ae92:	39 ca                	cmp    %ecx,%edx
 804ae94:	74 13                	je     804aea9 <__swsetup_r+0xf1>
 804ae96:	89 54 24 04          	mov    %edx,0x4(%esp)
 804ae9a:	8b 44 24 20          	mov    0x20(%esp),%eax
 804ae9e:	89 04 24             	mov    %eax,(%esp)
 804aea1:	e8 5a 1c 00 00       	call   804cb00 <_free_r>
 804aea6:	8b 43 0c             	mov    0xc(%ebx),%eax
 804aea9:	c7 43 30 00 00 00 00 	movl   $0x0,0x30(%ebx)
	  fp->_flags &= ~(__SRD | __SEOF);
 804aeb0:	83 e0 db             	and    $0xffffffdb,%eax
	  fp->_r = 0;
 804aeb3:	c7 43 04 00 00 00 00 	movl   $0x0,0x4(%ebx)
	  fp->_p = fp->_bf._base;
 804aeba:	8b 53 10             	mov    0x10(%ebx),%edx
 804aebd:	89 13                	mov    %edx,(%ebx)
 804aebf:	e9 4b ff ff ff       	jmp    804ae0f <__swsetup_r+0x57>

  if ((fp->_flags & __SWR) == 0)
    {
      if ((fp->_flags & __SRW) == 0)
        {
	  ptr->_errno = EBADF;
 804aec4:	8b 54 24 20          	mov    0x20(%esp),%edx
 804aec8:	c7 02 09 00 00 00    	movl   $0x9,(%edx)
	  fp->_flags |= __SERR;
 804aece:	83 c8 40             	or     $0x40,%eax
 804aed1:	66 89 43 0c          	mov    %ax,0xc(%ebx)
	  return EOF;
 804aed5:	b8 ff ff ff ff       	mov    $0xffffffff,%eax
 804aeda:	e9 1b ff ff ff       	jmp    804adfa <__swsetup_r+0x42>
 804aedf:	90                   	nop

0804aee0 <__call_exitprocs>:
 */

void 
_DEFUN (__call_exitprocs, (code, d),
	int code _AND _PTR d)
{
 804aee0:	55                   	push   %ebp
 804aee1:	57                   	push   %edi
 804aee2:	56                   	push   %esi
 804aee3:	53                   	push   %ebx
 804aee4:	83 ec 3c             	sub    $0x3c,%esp
 804aee7:	8b 6c 24 54          	mov    0x54(%esp),%ebp
 804aeeb:	a1 8c 16 05 08       	mov    0x805168c,%eax
 804aef0:	05 48 01 00 00       	add    $0x148,%eax
 804aef5:	89 44 24 2c          	mov    %eax,0x2c(%esp)
  __lock_acquire_recursive(__atexit_lock);
#endif

 restart:

  p = _GLOBAL_ATEXIT;
 804aef9:	8b 15 8c 16 05 08    	mov    0x805168c,%edx
 804aeff:	8b ba 48 01 00 00    	mov    0x148(%edx),%edi
  lastp = &_GLOBAL_ATEXIT;
 804af05:	8b 44 24 2c          	mov    0x2c(%esp),%eax
 804af09:	89 44 24 28          	mov    %eax,0x28(%esp)
  while (p)
 804af0d:	85 ff                	test   %edi,%edi
 804af0f:	0f 84 b0 00 00 00    	je     804afc5 <__call_exitprocs+0xe5>
#ifdef _REENT_SMALL
      args = p->_on_exit_args_ptr;
#else
      args = &p->_on_exit_args;
#endif
      for (n = p->_ind - 1; n >= 0; n--)
 804af15:	8b 5f 04             	mov    0x4(%edi),%ebx
 804af18:	4b                   	dec    %ebx
 804af19:	0f 88 9d 00 00 00    	js     804afbc <__call_exitprocs+0xdc>
 * Call registered exit handlers.  If D is null then all handlers are called,
 * otherwise only the handlers from that DSO are called.
 */

void 
_DEFUN (__call_exitprocs, (code, d),
 804af1f:	8d 97 88 00 00 00    	lea    0x88(%edi),%edx
 804af25:	89 54 24 24          	mov    %edx,0x24(%esp)
 804af29:	8d 34 9a             	lea    (%edx,%ebx,4),%esi
 804af2c:	eb 13                	jmp    804af41 <__call_exitprocs+0x61>
 804af2e:	66 90                	xchg   %ax,%ax
	  int ind;

	  i = 1 << n;

	  /* Skip functions not from this dso.  */
	  if (d && (!args || args->_dso_handle[n] != d))
 804af30:	39 ae 80 00 00 00    	cmp    %ebp,0x80(%esi)
 804af36:	74 0d                	je     804af45 <__call_exitprocs+0x65>
#ifdef _REENT_SMALL
      args = p->_on_exit_args_ptr;
#else
      args = &p->_on_exit_args;
#endif
      for (n = p->_ind - 1; n >= 0; n--)
 804af38:	4b                   	dec    %ebx
 804af39:	83 ee 04             	sub    $0x4,%esi
 804af3c:	83 fb ff             	cmp    $0xffffffff,%ebx
 804af3f:	74 7b                	je     804afbc <__call_exitprocs+0xdc>
	  int ind;

	  i = 1 << n;

	  /* Skip functions not from this dso.  */
	  if (d && (!args || args->_dso_handle[n] != d))
 804af41:	85 ed                	test   %ebp,%ebp
 804af43:	75 eb                	jne    804af30 <__call_exitprocs+0x50>
 * Call registered exit handlers.  If D is null then all handlers are called,
 * otherwise only the handlers from that DSO are called.
 */

void 
_DEFUN (__call_exitprocs, (code, d),
 804af45:	89 f2                	mov    %esi,%edx
 804af47:	2b 54 24 24          	sub    0x24(%esp),%edx
	  if (d && (!args || args->_dso_handle[n] != d))
	    continue;

	  /* Remove the function now to protect against the
	     function calling exit recursively.  */
	  fn = p->_fns[n];
 804af4b:	8b 44 3a 08          	mov    0x8(%edx,%edi,1),%eax
	  if (n == p->_ind - 1)
 804af4f:	8b 4f 04             	mov    0x4(%edi),%ecx
 804af52:	49                   	dec    %ecx
 804af53:	39 d9                	cmp    %ebx,%ecx
 804af55:	74 7d                	je     804afd4 <__call_exitprocs+0xf4>
	    p->_ind--;
	  else
	    p->_fns[n] = NULL;
 804af57:	c7 44 3a 08 00 00 00 	movl   $0x0,0x8(%edx,%edi,1)
 804af5e:	00 

	  /* Skip functions that have already been called.  */
	  if (!fn)
 804af5f:	85 c0                	test   %eax,%eax
 804af61:	74 d5                	je     804af38 <__call_exitprocs+0x58>
	    continue;

	  ind = p->_ind;
 804af63:	8b 57 04             	mov    0x4(%edi),%edx
 804af66:	89 54 24 18          	mov    %edx,0x18(%esp)
#endif
      for (n = p->_ind - 1; n >= 0; n--)
	{
	  int ind;

	  i = 1 << n;
 804af6a:	ba 01 00 00 00       	mov    $0x1,%edx
 804af6f:	88 d9                	mov    %bl,%cl
 804af71:	d3 e2                	shl    %cl,%edx
 804af73:	89 54 24 1c          	mov    %edx,0x1c(%esp)
	    continue;

	  ind = p->_ind;

	  /* Call the function.  */
	  if (!args || (args->_fntypes & i) == 0)
 804af77:	85 97 88 01 00 00    	test   %edx,0x188(%edi)
 804af7d:	74 51                	je     804afd0 <__call_exitprocs+0xf0>
	    fn ();
	  else if ((args->_is_cxa & i) == 0)
 804af7f:	8b 4c 24 1c          	mov    0x1c(%esp),%ecx
 804af83:	85 8f 8c 01 00 00    	test   %ecx,0x18c(%edi)
	    (*((void (*)(int, _PTR)) fn))(code, args->_fnargs[n]);
 804af89:	8b 0e                	mov    (%esi),%ecx
	  ind = p->_ind;

	  /* Call the function.  */
	  if (!args || (args->_fntypes & i) == 0)
	    fn ();
	  else if ((args->_is_cxa & i) == 0)
 804af8b:	75 4f                	jne    804afdc <__call_exitprocs+0xfc>
	    (*((void (*)(int, _PTR)) fn))(code, args->_fnargs[n]);
 804af8d:	89 4c 24 04          	mov    %ecx,0x4(%esp)
 804af91:	8b 54 24 50          	mov    0x50(%esp),%edx
 804af95:	89 14 24             	mov    %edx,(%esp)
 804af98:	ff d0                	call   *%eax
	    (*((void (*)(_PTR)) fn))(args->_fnargs[n]);

	  /* The function we called call atexit and registered another
	     function (or functions).  Call these new functions before
	     continuing with the already registered functions.  */
	  if (ind != p->_ind || *lastp != p)
 804af9a:	8b 44 24 18          	mov    0x18(%esp),%eax
 804af9e:	39 47 04             	cmp    %eax,0x4(%edi)
 804afa1:	0f 85 52 ff ff ff    	jne    804aef9 <__call_exitprocs+0x19>
 804afa7:	8b 54 24 28          	mov    0x28(%esp),%edx
 804afab:	39 3a                	cmp    %edi,(%edx)
 804afad:	0f 85 46 ff ff ff    	jne    804aef9 <__call_exitprocs+0x19>
#ifdef _REENT_SMALL
      args = p->_on_exit_args_ptr;
#else
      args = &p->_on_exit_args;
#endif
      for (n = p->_ind - 1; n >= 0; n--)
 804afb3:	4b                   	dec    %ebx
 804afb4:	83 ee 04             	sub    $0x4,%esi
 804afb7:	83 fb ff             	cmp    $0xffffffff,%ebx
 804afba:	75 85                	jne    804af41 <__call_exitprocs+0x61>
#ifndef _ATEXIT_DYNAMIC_ALLOC
      break;
#else
      /* Don't dynamically free the atexit array if free is not
	 available.  */
      if (!free)
 804afbc:	b9 a0 d4 04 08       	mov    $0x804d4a0,%ecx
 804afc1:	85 c9                	test   %ecx,%ecx
 804afc3:	75 1e                	jne    804afe3 <__call_exitprocs+0x103>
    }
#ifndef __SINGLE_THREAD__
  __lock_release_recursive(__atexit_lock);
#endif

}
 804afc5:	83 c4 3c             	add    $0x3c,%esp
 804afc8:	5b                   	pop    %ebx
 804afc9:	5e                   	pop    %esi
 804afca:	5f                   	pop    %edi
 804afcb:	5d                   	pop    %ebp
 804afcc:	c3                   	ret    
 804afcd:	8d 76 00             	lea    0x0(%esi),%esi

	  ind = p->_ind;

	  /* Call the function.  */
	  if (!args || (args->_fntypes & i) == 0)
	    fn ();
 804afd0:	ff d0                	call   *%eax
 804afd2:	eb c6                	jmp    804af9a <__call_exitprocs+0xba>

	  /* Remove the function now to protect against the
	     function calling exit recursively.  */
	  fn = p->_fns[n];
	  if (n == p->_ind - 1)
	    p->_ind--;
 804afd4:	89 5f 04             	mov    %ebx,0x4(%edi)
 804afd7:	eb 86                	jmp    804af5f <__call_exitprocs+0x7f>
 804afd9:	8d 76 00             	lea    0x0(%esi),%esi
	  if (!args || (args->_fntypes & i) == 0)
	    fn ();
	  else if ((args->_is_cxa & i) == 0)
	    (*((void (*)(int, _PTR)) fn))(code, args->_fnargs[n]);
	  else
	    (*((void (*)(_PTR)) fn))(args->_fnargs[n]);
 804afdc:	89 0c 24             	mov    %ecx,(%esp)
 804afdf:	ff d0                	call   *%eax
 804afe1:	eb b7                	jmp    804af9a <__call_exitprocs+0xba>
      if (!free)
	break;

      /* Move to the next block.  Free empty blocks except the last one,
	 which is part of _GLOBAL_REENT.  */
      if (p->_ind == 0 && p->_next)
 804afe3:	8b 47 04             	mov    0x4(%edi),%eax
 804afe6:	85 c0                	test   %eax,%eax
 804afe8:	8b 07                	mov    (%edi),%eax
 804afea:	75 1f                	jne    804b00b <__call_exitprocs+0x12b>
 804afec:	85 c0                	test   %eax,%eax
 804afee:	74 19                	je     804b009 <__call_exitprocs+0x129>
	{
	  /* Remove empty block from the list.  */
	  *lastp = p->_next;
 804aff0:	8b 54 24 28          	mov    0x28(%esp),%edx
 804aff4:	89 02                	mov    %eax,(%edx)
#ifdef _REENT_SMALL
	  if (args)
	    free (args);
#endif
	  free (p);
 804aff6:	89 3c 24             	mov    %edi,(%esp)
 804aff9:	e8 a2 24 00 00       	call   804d4a0 <free>
	  p = *lastp;
 804affe:	8b 44 24 28          	mov    0x28(%esp),%eax
 804b002:	8b 38                	mov    (%eax),%edi
 804b004:	e9 04 ff ff ff       	jmp    804af0d <__call_exitprocs+0x2d>
      if (!free)
	break;

      /* Move to the next block.  Free empty blocks except the last one,
	 which is part of _GLOBAL_REENT.  */
      if (p->_ind == 0 && p->_next)
 804b009:	31 c0                	xor    %eax,%eax
	  free (p);
	  p = *lastp;
	}
      else
	{
	  lastp = &p->_next;
 804b00b:	89 7c 24 28          	mov    %edi,0x28(%esp)
	  p = p->_next;
 804b00f:	89 c7                	mov    %eax,%edi
 804b011:	e9 f7 fe ff ff       	jmp    804af0d <__call_exitprocs+0x2d>
 804b016:	90                   	nop
 804b017:	90                   	nop

0804b018 <quorem>:

static int
_DEFUN (quorem,
	(b, S),
	_Bigint * b _AND _Bigint * S)
{
 804b018:	55                   	push   %ebp
 804b019:	57                   	push   %edi
 804b01a:	56                   	push   %esi
 804b01b:	53                   	push   %ebx
 804b01c:	83 ec 4c             	sub    $0x4c,%esp
 804b01f:	89 44 24 24          	mov    %eax,0x24(%esp)
 804b023:	89 54 24 28          	mov    %edx,0x28(%esp)
#ifdef Pack_32
  __Long z;
  __ULong si, zs;
#endif

  n = S->_wds;
 804b027:	8b 42 10             	mov    0x10(%edx),%eax
#ifdef DEBUG
  /*debug*/ if (b->_wds > n)
    /*debug*/ Bug ("oversize b in quorem");
#endif
  if (b->_wds < n)
 804b02a:	8b 54 24 24          	mov    0x24(%esp),%edx
 804b02e:	3b 42 10             	cmp    0x10(%edx),%eax
 804b031:	0f 8f b5 01 00 00    	jg     804b1ec <quorem+0x1d4>
    return 0;
  sx = S->_x;
 804b037:	8b 6c 24 28          	mov    0x28(%esp),%ebp
 804b03b:	83 c5 14             	add    $0x14,%ebp
  sxe = sx + --n;
 804b03e:	8d 78 ff             	lea    -0x1(%eax),%edi
 804b041:	83 c0 03             	add    $0x3,%eax
 804b044:	8b 54 24 28          	mov    0x28(%esp),%edx
 804b048:	8d 54 82 04          	lea    0x4(%edx,%eax,4),%edx
 804b04c:	89 54 24 2c          	mov    %edx,0x2c(%esp)
  bx = b->_x;
 804b050:	8b 54 24 24          	mov    0x24(%esp),%edx
 804b054:	83 c2 14             	add    $0x14,%edx
 804b057:	89 54 24 30          	mov    %edx,0x30(%esp)
  bxe = bx + n;
  q = *bxe / (*sxe + 1);	/* ensure q <= true quotient */
 804b05b:	8b 54 24 28          	mov    0x28(%esp),%edx
 804b05f:	8b 54 82 04          	mov    0x4(%edx,%eax,4),%edx
 804b063:	89 d1                	mov    %edx,%ecx
 804b065:	41                   	inc    %ecx
 804b066:	8b 54 24 24          	mov    0x24(%esp),%edx
 804b06a:	8b 44 82 04          	mov    0x4(%edx,%eax,4),%eax
 804b06e:	31 d2                	xor    %edx,%edx
 804b070:	f7 f1                	div    %ecx
 804b072:	89 44 24 20          	mov    %eax,0x20(%esp)
 804b076:	89 44 24 34          	mov    %eax,0x34(%esp)
#ifdef DEBUG
  /*debug*/ if (q > 9)
    /*debug*/ Bug ("oversized quotient in quorem");
#endif
  if (q)
 804b07a:	85 c0                	test   %eax,%eax
 804b07c:	0f 84 b7 00 00 00    	je     804b139 <quorem+0x121>
 804b082:	89 eb                	mov    %ebp,%ebx
 804b084:	8b 4c 24 30          	mov    0x30(%esp),%ecx
 804b088:	31 d2                	xor    %edx,%edx
 804b08a:	31 c0                	xor    %eax,%eax
 804b08c:	89 6c 24 38          	mov    %ebp,0x38(%esp)
 804b090:	89 d5                	mov    %edx,%ebp
 804b092:	89 7c 24 3c          	mov    %edi,0x3c(%esp)
 804b096:	89 c7                	mov    %eax,%edi
      borrow = 0;
      carry = 0;
      do
	{
#ifdef Pack_32
	  si = *sx++;
 804b098:	8b 13                	mov    (%ebx),%edx
 804b09a:	83 c3 04             	add    $0x4,%ebx
	  ys = (si & 0xffff) * q + carry;
 804b09d:	0f b7 f2             	movzwl %dx,%esi
 804b0a0:	0f af 74 24 20       	imul   0x20(%esp),%esi
 804b0a5:	01 ee                	add    %ebp,%esi
	  zs = (si >> 16) * q + (ys >> 16);
 804b0a7:	89 f0                	mov    %esi,%eax
 804b0a9:	c1 e8 10             	shr    $0x10,%eax
 804b0ac:	c1 ea 10             	shr    $0x10,%edx
 804b0af:	0f af 54 24 20       	imul   0x20(%esp),%edx
 804b0b4:	01 c2                	add    %eax,%edx
	  carry = zs >> 16;
 804b0b6:	89 d5                	mov    %edx,%ebp
 804b0b8:	c1 ed 10             	shr    $0x10,%ebp
	  y = (*bx & 0xffff) - (ys & 0xffff) + borrow;
 804b0bb:	0f b7 01             	movzwl (%ecx),%eax
 804b0be:	01 f8                	add    %edi,%eax
 804b0c0:	81 e6 ff ff 00 00    	and    $0xffff,%esi
 804b0c6:	29 f0                	sub    %esi,%eax
	  borrow = y >> 16;
	  Sign_Extend (borrow, y);
	  z = (*bx >> 16) - (zs & 0xffff) + borrow;
 804b0c8:	8b 31                	mov    (%ecx),%esi
 804b0ca:	c1 ee 10             	shr    $0x10,%esi
 804b0cd:	81 e2 ff ff 00 00    	and    $0xffff,%edx
 804b0d3:	29 d6                	sub    %edx,%esi
	  si = *sx++;
	  ys = (si & 0xffff) * q + carry;
	  zs = (si >> 16) * q + (ys >> 16);
	  carry = zs >> 16;
	  y = (*bx & 0xffff) - (ys & 0xffff) + borrow;
	  borrow = y >> 16;
 804b0d5:	89 c2                	mov    %eax,%edx
 804b0d7:	c1 fa 10             	sar    $0x10,%edx
	  Sign_Extend (borrow, y);
	  z = (*bx >> 16) - (zs & 0xffff) + borrow;
 804b0da:	01 f2                	add    %esi,%edx
	  borrow = z >> 16;
 804b0dc:	89 d7                	mov    %edx,%edi
 804b0de:	c1 ff 10             	sar    $0x10,%edi
	  Sign_Extend (borrow, z);
	  Storeinc (bx, z, y);
 804b0e1:	c1 e2 10             	shl    $0x10,%edx
 804b0e4:	25 ff ff 00 00       	and    $0xffff,%eax
 804b0e9:	09 c2                	or     %eax,%edx
 804b0eb:	89 11                	mov    %edx,(%ecx)
 804b0ed:	83 c1 04             	add    $0x4,%ecx
	  borrow = y >> 16;
	  Sign_Extend (borrow, y);
	  *bx++ = y & 0xffff;
#endif
	}
      while (sx <= sxe);
 804b0f0:	39 5c 24 2c          	cmp    %ebx,0x2c(%esp)
 804b0f4:	73 a2                	jae    804b098 <quorem+0x80>
 804b0f6:	8b 6c 24 38          	mov    0x38(%esp),%ebp
 804b0fa:	8b 7c 24 3c          	mov    0x3c(%esp),%edi
      if (!*bxe)
 804b0fe:	8d 47 04             	lea    0x4(%edi),%eax
 804b101:	8b 54 24 24          	mov    0x24(%esp),%edx
 804b105:	8b 74 82 04          	mov    0x4(%edx,%eax,4),%esi
 804b109:	85 f6                	test   %esi,%esi
 804b10b:	75 2c                	jne    804b139 <quorem+0x121>
  if (b->_wds < n)
    return 0;
  sx = S->_x;
  sxe = sx + --n;
  bx = b->_x;
  bxe = bx + n;
 804b10d:	8d 04 82             	lea    (%edx,%eax,4),%eax
	}
      while (sx <= sxe);
      if (!*bxe)
	{
	  bx = b->_x;
	  while (--bxe > bx && !*bxe)
 804b110:	39 44 24 30          	cmp    %eax,0x30(%esp)
 804b114:	73 1c                	jae    804b132 <quorem+0x11a>
 804b116:	8b 18                	mov    (%eax),%ebx
 804b118:	85 db                	test   %ebx,%ebx
 804b11a:	75 16                	jne    804b132 <quorem+0x11a>
 804b11c:	8b 54 24 30          	mov    0x30(%esp),%edx
 804b120:	eb 08                	jmp    804b12a <quorem+0x112>
 804b122:	66 90                	xchg   %ax,%ax
 804b124:	8b 08                	mov    (%eax),%ecx
 804b126:	85 c9                	test   %ecx,%ecx
 804b128:	75 08                	jne    804b132 <quorem+0x11a>
	    --n;
 804b12a:	4f                   	dec    %edi
	}
      while (sx <= sxe);
      if (!*bxe)
	{
	  bx = b->_x;
	  while (--bxe > bx && !*bxe)
 804b12b:	83 e8 04             	sub    $0x4,%eax
 804b12e:	39 c2                	cmp    %eax,%edx
 804b130:	72 f2                	jb     804b124 <quorem+0x10c>
	    --n;
	  b->_wds = n;
 804b132:	8b 44 24 24          	mov    0x24(%esp),%eax
 804b136:	89 78 10             	mov    %edi,0x10(%eax)
	}
    }
  if (cmp (b, S) >= 0)
 804b139:	8b 54 24 28          	mov    0x28(%esp),%edx
 804b13d:	89 54 24 04          	mov    %edx,0x4(%esp)
 804b141:	8b 44 24 24          	mov    0x24(%esp),%eax
 804b145:	89 04 24             	mov    %eax,(%esp)
 804b148:	e8 73 33 00 00       	call   804e4c0 <__mcmp>
 804b14d:	85 c0                	test   %eax,%eax
 804b14f:	0f 88 88 00 00 00    	js     804b1dd <quorem+0x1c5>
    {
      q++;
 804b155:	8b 54 24 20          	mov    0x20(%esp),%edx
 804b159:	42                   	inc    %edx
 804b15a:	89 54 24 34          	mov    %edx,0x34(%esp)
#endif
  if (b->_wds < n)
    return 0;
  sx = S->_x;
  sxe = sx + --n;
  bx = b->_x;
 804b15e:	8b 54 24 30          	mov    0x30(%esp),%edx
	}
    }
  if (cmp (b, S) >= 0)
    {
      q++;
      borrow = 0;
 804b162:	31 db                	xor    %ebx,%ebx
 804b164:	8b 74 24 2c          	mov    0x2c(%esp),%esi
      bx = b->_x;
      sx = S->_x;
      do
	{
#ifdef Pack_32
	  si = *sx++;
 804b168:	8b 4d 00             	mov    0x0(%ebp),%ecx
 804b16b:	83 c5 04             	add    $0x4,%ebp
	  ys = (si & 0xffff) + carry;
	  zs = (si >> 16) + (ys >> 16);
	  carry = zs >> 16;
	  y = (*bx & 0xffff) - (ys & 0xffff) + borrow;
 804b16e:	0f b7 02             	movzwl (%edx),%eax
 804b171:	01 d8                	add    %ebx,%eax
 804b173:	0f b7 d9             	movzwl %cx,%ebx
 804b176:	29 d8                	sub    %ebx,%eax
	  borrow = y >> 16;
	  Sign_Extend (borrow, y);
	  z = (*bx >> 16) - (zs & 0xffff) + borrow;
 804b178:	8b 1a                	mov    (%edx),%ebx
 804b17a:	c1 eb 10             	shr    $0x10,%ebx
 804b17d:	c1 e9 10             	shr    $0x10,%ecx
 804b180:	29 cb                	sub    %ecx,%ebx
	  si = *sx++;
	  ys = (si & 0xffff) + carry;
	  zs = (si >> 16) + (ys >> 16);
	  carry = zs >> 16;
	  y = (*bx & 0xffff) - (ys & 0xffff) + borrow;
	  borrow = y >> 16;
 804b182:	89 c1                	mov    %eax,%ecx
 804b184:	c1 f9 10             	sar    $0x10,%ecx
	  Sign_Extend (borrow, y);
	  z = (*bx >> 16) - (zs & 0xffff) + borrow;
 804b187:	01 d9                	add    %ebx,%ecx
	  borrow = z >> 16;
 804b189:	89 cb                	mov    %ecx,%ebx
 804b18b:	c1 fb 10             	sar    $0x10,%ebx
	  Sign_Extend (borrow, z);
	  Storeinc (bx, z, y);
 804b18e:	c1 e1 10             	shl    $0x10,%ecx
 804b191:	25 ff ff 00 00       	and    $0xffff,%eax
 804b196:	09 c1                	or     %eax,%ecx
 804b198:	89 0a                	mov    %ecx,(%edx)
 804b19a:	83 c2 04             	add    $0x4,%edx
	  borrow = y >> 16;
	  Sign_Extend (borrow, y);
	  *bx++ = y & 0xffff;
#endif
	}
      while (sx <= sxe);
 804b19d:	39 ee                	cmp    %ebp,%esi
 804b19f:	73 c7                	jae    804b168 <quorem+0x150>
      bx = b->_x;
      bxe = bx + n;
      if (!*bxe)
 804b1a1:	8d 47 04             	lea    0x4(%edi),%eax
 804b1a4:	8b 54 24 24          	mov    0x24(%esp),%edx
 804b1a8:	8b 74 82 04          	mov    0x4(%edx,%eax,4),%esi
 804b1ac:	85 f6                	test   %esi,%esi
 804b1ae:	75 2d                	jne    804b1dd <quorem+0x1c5>
	  *bx++ = y & 0xffff;
#endif
	}
      while (sx <= sxe);
      bx = b->_x;
      bxe = bx + n;
 804b1b0:	8d 04 82             	lea    (%edx,%eax,4),%eax
      if (!*bxe)
	{
	  while (--bxe > bx && !*bxe)
 804b1b3:	39 44 24 30          	cmp    %eax,0x30(%esp)
 804b1b7:	73 1d                	jae    804b1d6 <quorem+0x1be>
 804b1b9:	8b 18                	mov    (%eax),%ebx
 804b1bb:	85 db                	test   %ebx,%ebx
 804b1bd:	75 17                	jne    804b1d6 <quorem+0x1be>
 804b1bf:	8b 54 24 30          	mov    0x30(%esp),%edx
 804b1c3:	eb 09                	jmp    804b1ce <quorem+0x1b6>
 804b1c5:	8d 76 00             	lea    0x0(%esi),%esi
 804b1c8:	8b 08                	mov    (%eax),%ecx
 804b1ca:	85 c9                	test   %ecx,%ecx
 804b1cc:	75 08                	jne    804b1d6 <quorem+0x1be>
	    --n;
 804b1ce:	4f                   	dec    %edi
      while (sx <= sxe);
      bx = b->_x;
      bxe = bx + n;
      if (!*bxe)
	{
	  while (--bxe > bx && !*bxe)
 804b1cf:	83 e8 04             	sub    $0x4,%eax
 804b1d2:	39 c2                	cmp    %eax,%edx
 804b1d4:	72 f2                	jb     804b1c8 <quorem+0x1b0>
	    --n;
	  b->_wds = n;
 804b1d6:	8b 44 24 24          	mov    0x24(%esp),%eax
 804b1da:	89 78 10             	mov    %edi,0x10(%eax)
	}
    }
  return q;
 804b1dd:	8b 44 24 34          	mov    0x34(%esp),%eax
}
 804b1e1:	83 c4 4c             	add    $0x4c,%esp
 804b1e4:	5b                   	pop    %ebx
 804b1e5:	5e                   	pop    %esi
 804b1e6:	5f                   	pop    %edi
 804b1e7:	5d                   	pop    %ebp
 804b1e8:	c3                   	ret    
 804b1e9:	8d 76 00             	lea    0x0(%esi),%esi
#ifdef DEBUG
  /*debug*/ if (b->_wds > n)
    /*debug*/ Bug ("oversize b in quorem");
#endif
  if (b->_wds < n)
    return 0;
 804b1ec:	31 c0                	xor    %eax,%eax
	    --n;
	  b->_wds = n;
	}
    }
  return q;
}
 804b1ee:	83 c4 4c             	add    $0x4c,%esp
 804b1f1:	5b                   	pop    %ebx
 804b1f2:	5e                   	pop    %esi
 804b1f3:	5f                   	pop    %edi
 804b1f4:	5d                   	pop    %ebp
 804b1f5:	c3                   	ret    
 804b1f6:	66 90                	xchg   %ax,%ax

0804b1f8 <_dtoa_r>:
	int mode _AND
	int ndigits _AND
	int *decpt _AND
	int *sign _AND
	char **rve)
{
 804b1f8:	55                   	push   %ebp
 804b1f9:	57                   	push   %edi
 804b1fa:	56                   	push   %esi
 804b1fb:	53                   	push   %ebx
 804b1fc:	81 ec 9c 00 00 00    	sub    $0x9c,%esp
 804b202:	8b ac 24 b0 00 00 00 	mov    0xb0(%esp),%ebp
 804b209:	8b 9c 24 c8 00 00 00 	mov    0xc8(%esp),%ebx
#endif
  _Bigint *b, *b1, *delta, *mlo = NULL, *mhi, *S;
  double ds;
  char *s, *s0;

  d.d = _d;
 804b210:	dd 84 24 b4 00 00 00 	fldl   0xb4(%esp)
 804b217:	dd 5c 24 30          	fstpl  0x30(%esp)

  _REENT_CHECK_MP(ptr);
  if (_REENT_MP_RESULT(ptr))
 804b21b:	8b 45 40             	mov    0x40(%ebp),%eax
 804b21e:	85 c0                	test   %eax,%eax
 804b220:	74 23                	je     804b245 <_dtoa_r+0x4d>
    {
      _REENT_MP_RESULT(ptr)->_k = _REENT_MP_RESULT_K(ptr);
 804b222:	8b 4d 44             	mov    0x44(%ebp),%ecx
 804b225:	89 48 04             	mov    %ecx,0x4(%eax)
      _REENT_MP_RESULT(ptr)->_maxwds = 1 << _REENT_MP_RESULT_K(ptr);
 804b228:	ba 01 00 00 00       	mov    $0x1,%edx
 804b22d:	d3 e2                	shl    %cl,%edx
 804b22f:	89 50 08             	mov    %edx,0x8(%eax)
      Bfree (ptr, _REENT_MP_RESULT(ptr));
 804b232:	89 44 24 04          	mov    %eax,0x4(%esp)
 804b236:	89 2c 24             	mov    %ebp,(%esp)
 804b239:	e8 fe 2b 00 00       	call   804de3c <_Bfree>
      _REENT_MP_RESULT(ptr) = 0;
 804b23e:	c7 45 40 00 00 00 00 	movl   $0x0,0x40(%ebp)
    }

  if (word0 (d) & Sign_bit)
 804b245:	8b 7c 24 34          	mov    0x34(%esp),%edi
 804b249:	85 ff                	test   %edi,%edi
 804b24b:	0f 88 bb 00 00 00    	js     804b30c <_dtoa_r+0x114>
      /* set sign for everything, including 0's and NaNs */
      *sign = 1;
      word0 (d) &= ~Sign_bit;	/* clear sign bit */
    }
  else
    *sign = 0;
 804b251:	c7 03 00 00 00 00    	movl   $0x0,(%ebx)

#if defined(IEEE_Arith) + defined(VAX)
#ifdef IEEE_Arith
  if ((word0 (d) & Exp_mask) == Exp_mask)
 804b257:	89 f8                	mov    %edi,%eax
 804b259:	25 00 00 f0 7f       	and    $0x7ff00000,%eax
 804b25e:	3d 00 00 f0 7f       	cmp    $0x7ff00000,%eax
 804b263:	74 5b                	je     804b2c0 <_dtoa_r+0xc8>
    }
#endif
#ifdef IBM
  d.d += 0;			/* normalize */
#endif
  if (!d.d)
 804b265:	dd 44 24 30          	fldl   0x30(%esp)
 804b269:	dd 5c 24 28          	fstpl  0x28(%esp)
 804b26d:	d9 ee                	fldz   
 804b26f:	dd 44 24 28          	fldl   0x28(%esp)
 804b273:	da e9                	fucompp 
 804b275:	df e0                	fnstsw %ax
 804b277:	80 e4 45             	and    $0x45,%ah
 804b27a:	80 f4 40             	xor    $0x40,%ah
 804b27d:	0f 85 a1 00 00 00    	jne    804b324 <_dtoa_r+0x12c>
    {
      *decpt = 1;
 804b283:	8b 84 24 c4 00 00 00 	mov    0xc4(%esp),%eax
 804b28a:	c7 00 01 00 00 00    	movl   $0x1,(%eax)
      s = "0";
      if (rve)
 804b290:	8b ac 24 cc 00 00 00 	mov    0xcc(%esp),%ebp
 804b297:	85 ed                	test   %ebp,%ebp
 804b299:	0f 84 bd 04 00 00    	je     804b75c <_dtoa_r+0x564>
	*rve = s + 1;
 804b29f:	8b 94 24 cc 00 00 00 	mov    0xcc(%esp),%edx
 804b2a6:	c7 02 ce 16 05 08    	movl   $0x80516ce,(%edx)
      return s;
 804b2ac:	be cd 16 05 08       	mov    $0x80516cd,%esi
  *s = 0;
  *decpt = k + 1;
  if (rve)
    *rve = s;
  return s0;
}
 804b2b1:	89 f0                	mov    %esi,%eax
 804b2b3:	81 c4 9c 00 00 00    	add    $0x9c,%esp
 804b2b9:	5b                   	pop    %ebx
 804b2ba:	5e                   	pop    %esi
 804b2bb:	5f                   	pop    %edi
 804b2bc:	5d                   	pop    %ebp
 804b2bd:	c3                   	ret    
 804b2be:	66 90                	xchg   %ax,%ax
#else
  if (word0 (d) == 0x8000)
#endif
    {
      /* Infinity or NaN */
      *decpt = 9999;
 804b2c0:	8b 84 24 c4 00 00 00 	mov    0xc4(%esp),%eax
 804b2c7:	c7 00 0f 27 00 00    	movl   $0x270f,(%eax)
      s =
#ifdef IEEE_Arith
	!word1 (d) && !(word0 (d) & 0xfffff) ? "Infinity" :
 804b2cd:	8b 44 24 30          	mov    0x30(%esp),%eax
 804b2d1:	85 c0                	test   %eax,%eax
 804b2d3:	0f 84 37 04 00 00    	je     804b710 <_dtoa_r+0x518>
 804b2d9:	be 5d 18 05 08       	mov    $0x805185d,%esi
#endif
	"NaN";
      if (rve)
 804b2de:	8b 84 24 cc 00 00 00 	mov    0xcc(%esp),%eax
 804b2e5:	85 c0                	test   %eax,%eax
 804b2e7:	74 c8                	je     804b2b1 <_dtoa_r+0xb9>
	*rve =
#ifdef IEEE_Arith
	  s[3] ? s + 8 :
 804b2e9:	80 7e 03 00          	cmpb   $0x0,0x3(%esi)
 804b2ed:	0f 85 35 04 00 00    	jne    804b728 <_dtoa_r+0x530>
 804b2f3:	8d 46 03             	lea    0x3(%esi),%eax
#ifdef IEEE_Arith
	!word1 (d) && !(word0 (d) & 0xfffff) ? "Infinity" :
#endif
	"NaN";
      if (rve)
	*rve =
 804b2f6:	8b 94 24 cc 00 00 00 	mov    0xcc(%esp),%edx
 804b2fd:	89 02                	mov    %eax,(%edx)
  *s = 0;
  *decpt = k + 1;
  if (rve)
    *rve = s;
  return s0;
}
 804b2ff:	89 f0                	mov    %esi,%eax
 804b301:	81 c4 9c 00 00 00    	add    $0x9c,%esp
 804b307:	5b                   	pop    %ebx
 804b308:	5e                   	pop    %esi
 804b309:	5f                   	pop    %edi
 804b30a:	5d                   	pop    %ebp
 804b30b:	c3                   	ret    
    }

  if (word0 (d) & Sign_bit)
    {
      /* set sign for everything, including 0's and NaNs */
      *sign = 1;
 804b30c:	c7 03 01 00 00 00    	movl   $0x1,(%ebx)
      word0 (d) &= ~Sign_bit;	/* clear sign bit */
 804b312:	81 e7 ff ff ff 7f    	and    $0x7fffffff,%edi
 804b318:	89 7c 24 34          	mov    %edi,0x34(%esp)
 804b31c:	e9 36 ff ff ff       	jmp    804b257 <_dtoa_r+0x5f>
 804b321:	8d 76 00             	lea    0x0(%esi),%esi
      if (rve)
	*rve = s + 1;
      return s;
    }

  b = d2b (ptr, d.d, &be, &bbits);
 804b324:	8d 84 24 88 00 00 00 	lea    0x88(%esp),%eax
 804b32b:	89 44 24 10          	mov    %eax,0x10(%esp)
 804b32f:	8d 84 24 8c 00 00 00 	lea    0x8c(%esp),%eax
 804b336:	89 44 24 0c          	mov    %eax,0xc(%esp)
 804b33a:	dd 44 24 28          	fldl   0x28(%esp)
 804b33e:	dd 5c 24 04          	fstpl  0x4(%esp)
 804b342:	89 2c 24             	mov    %ebp,(%esp)
 804b345:	e8 b6 34 00 00       	call   804e800 <__d2b>
 804b34a:	89 44 24 54          	mov    %eax,0x54(%esp)
#ifdef Sudden_Underflow
  i = (int) (word0 (d) >> Exp_shift1 & (Exp_mask >> Exp_shift1));
#else
  if ((i = (int) (word0 (d) >> Exp_shift1 & (Exp_mask >> Exp_shift1))) != 0)
 804b34e:	89 fe                	mov    %edi,%esi
 804b350:	c1 ee 14             	shr    $0x14,%esi
 804b353:	81 e6 ff 07 00 00    	and    $0x7ff,%esi
 804b359:	0f 85 d1 03 00 00    	jne    804b730 <_dtoa_r+0x538>
    }
  else
    {
      /* d is denormalized */

      i = bbits + be + (Bias + (P - 1) - 1);
 804b35f:	8b 9c 24 88 00 00 00 	mov    0x88(%esp),%ebx
 804b366:	8b b4 24 8c 00 00 00 	mov    0x8c(%esp),%esi
 804b36d:	01 de                	add    %ebx,%esi
#if defined (_DOUBLE_IS_32BITS)
      x = word0 (d) << (32 - i);
#else
      x = (i > 32) ? (word0 (d) << (64 - i)) | (word1 (d) >> (i - 32))
 804b36f:	81 fe ef fb ff ff    	cmp    $0xfffffbef,%esi
 804b375:	0f 8c 59 09 00 00    	jl     804bcd4 <_dtoa_r+0xadc>
 804b37b:	b9 0e fc ff ff       	mov    $0xfffffc0e,%ecx
 804b380:	29 f1                	sub    %esi,%ecx
 804b382:	89 f8                	mov    %edi,%eax
 804b384:	d3 e0                	shl    %cl,%eax
 804b386:	8d 8e 12 04 00 00    	lea    0x412(%esi),%ecx
 804b38c:	8b 54 24 30          	mov    0x30(%esp),%edx
 804b390:	d3 ea                	shr    %cl,%edx
 804b392:	09 d0                	or     %edx,%eax
       : (word1 (d) << (32 - i));
#endif
      d2.d = x;
 804b394:	31 d2                	xor    %edx,%edx
 804b396:	89 44 24 70          	mov    %eax,0x70(%esp)
 804b39a:	89 54 24 74          	mov    %edx,0x74(%esp)
 804b39e:	df 6c 24 70          	fildll 0x70(%esp)
 804b3a2:	dd 5c 24 28          	fstpl  0x28(%esp)
      word0 (d2) -= 31 * Exp_msk1;	/* adjust exponent */
 804b3a6:	81 6c 24 2c 00 00 f0 	subl   $0x1f00000,0x2c(%esp)
 804b3ad:	01 
      i -= (Bias + (P - 1) - 1) + 1;
 804b3ae:	4e                   	dec    %esi
      denorm = 1;
 804b3af:	c7 44 24 4c 01 00 00 	movl   $0x1,0x4c(%esp)
 804b3b6:	00 
    }
#endif
#if defined (_DOUBLE_IS_32BITS)
  ds = (d2.d - 1.5) * 0.289529651 + 0.176091269 + i * 0.30103001;
#else
  ds = (d2.d - 1.5) * 0.289529654602168 + 0.1760912590558 + i * 0.301029995663981;
 804b3b7:	dd 44 24 28          	fldl   0x28(%esp)
 804b3bb:	d8 25 64 18 05 08    	fsubs  0x8051864
 804b3c1:	dc 0d 80 18 05 08    	fmull  0x8051880
 804b3c7:	dc 05 88 18 05 08    	faddl  0x8051888
 804b3cd:	dd 05 90 18 05 08    	fldl   0x8051890
 804b3d3:	56                   	push   %esi
 804b3d4:	da 0c 24             	fimull (%esp)
 804b3d7:	5f                   	pop    %edi
 804b3d8:	de c1                	faddp  %st,%st(1)
#endif
  k = (int) ds;
 804b3da:	d9 7c 24 7e          	fnstcw 0x7e(%esp)
 804b3de:	66 8b 44 24 7e       	mov    0x7e(%esp),%ax
 804b3e3:	b4 0c                	mov    $0xc,%ah
 804b3e5:	66 89 44 24 7c       	mov    %ax,0x7c(%esp)
 804b3ea:	d9 6c 24 7c          	fldcw  0x7c(%esp)
 804b3ee:	db 54 24 44          	fistl  0x44(%esp)
 804b3f2:	d9 6c 24 7e          	fldcw  0x7e(%esp)
  if (ds < 0. && ds != k)
 804b3f6:	d9 ee                	fldz   
 804b3f8:	dd e9                	fucomp %st(1)
 804b3fa:	df e0                	fnstsw %ax
 804b3fc:	f6 c4 45             	test   $0x45,%ah
 804b3ff:	0f 84 a3 05 00 00    	je     804b9a8 <_dtoa_r+0x7b0>
 804b405:	dd d8                	fstp   %st(0)
    k--;			/* want k = floor(ds) */
  k_check = 1;
  if (k >= 0 && k <= Ten_pmax)
 804b407:	83 7c 24 44 16       	cmpl   $0x16,0x44(%esp)
 804b40c:	0f 87 56 05 00 00    	ja     804b968 <_dtoa_r+0x770>
    {
      if (d.d < tens[k])
 804b412:	8b 44 24 44          	mov    0x44(%esp),%eax
 804b416:	dd 04 c5 20 19 05 08 	fldl   0x8051920(,%eax,8)
 804b41d:	dd 44 24 30          	fldl   0x30(%esp)
 804b421:	d9 c9                	fxch   %st(1)
 804b423:	da e9                	fucompp 
 804b425:	df e0                	fnstsw %ax
 804b427:	f6 c4 45             	test   $0x45,%ah
 804b42a:	0f 85 b8 08 00 00    	jne    804bce8 <_dtoa_r+0xaf0>
	k--;
 804b430:	ff 4c 24 44          	decl   0x44(%esp)
      k_check = 0;
 804b434:	c7 44 24 5c 00 00 00 	movl   $0x0,0x5c(%esp)
 804b43b:	00 
    }
  j = bbits - i - 1;
 804b43c:	29 f3                	sub    %esi,%ebx
  if (j >= 0)
 804b43e:	89 d8                	mov    %ebx,%eax
 804b440:	48                   	dec    %eax
 804b441:	0f 88 4d 05 00 00    	js     804b994 <_dtoa_r+0x79c>
 804b447:	89 44 24 28          	mov    %eax,0x28(%esp)
    {
      b2 = 0;
 804b44b:	c7 44 24 48 00 00 00 	movl   $0x0,0x48(%esp)
 804b452:	00 
  else
    {
      b2 = -j;
      s2 = 0;
    }
  if (k >= 0)
 804b453:	8b 5c 24 44          	mov    0x44(%esp),%ebx
 804b457:	85 db                	test   %ebx,%ebx
 804b459:	0f 88 19 05 00 00    	js     804b978 <_dtoa_r+0x780>
    {
      b5 = 0;
      s5 = k;
      s2 += k;
 804b45f:	8b 44 24 44          	mov    0x44(%esp),%eax
 804b463:	01 44 24 28          	add    %eax,0x28(%esp)
 804b467:	89 44 24 50          	mov    %eax,0x50(%esp)
      b2 = -j;
      s2 = 0;
    }
  if (k >= 0)
    {
      b5 = 0;
 804b46b:	c7 44 24 38 00 00 00 	movl   $0x0,0x38(%esp)
 804b472:	00 
    {
      b2 -= k;
      b5 = -k;
      s5 = 0;
    }
  if (mode < 0 || mode > 9)
 804b473:	83 bc 24 bc 00 00 00 	cmpl   $0x9,0xbc(%esp)
 804b47a:	09 
 804b47b:	0f 87 e7 02 00 00    	ja     804b768 <_dtoa_r+0x570>
    mode = 0;
  try_quick = 1;
  if (mode > 5)
 804b481:	83 bc 24 bc 00 00 00 	cmpl   $0x5,0xbc(%esp)
 804b488:	05 
 804b489:	0f 8e 5d 10 00 00    	jle    804c4ec <_dtoa_r+0x12f4>
    {
      mode -= 4;
 804b48f:	83 ac 24 bc 00 00 00 	subl   $0x4,0xbc(%esp)
 804b496:	04 
      try_quick = 0;
 804b497:	31 ff                	xor    %edi,%edi
    }
  leftright = 1;
  ilim = ilim1 = -1;
  switch (mode)
 804b499:	83 bc 24 bc 00 00 00 	cmpl   $0x3,0xbc(%esp)
 804b4a0:	03 
 804b4a1:	0f 84 89 0c 00 00    	je     804c130 <_dtoa_r+0xf38>
 804b4a7:	0f 8f 5b 09 00 00    	jg     804be08 <_dtoa_r+0xc10>
 804b4ad:	83 bc 24 bc 00 00 00 	cmpl   $0x2,0xbc(%esp)
 804b4b4:	02 
 804b4b5:	0f 85 b8 02 00 00    	jne    804b773 <_dtoa_r+0x57b>
    case 1:
      i = 18;
      ndigits = 0;
      break;
    case 2:
      leftright = 0;
 804b4bb:	c7 44 24 58 00 00 00 	movl   $0x0,0x58(%esp)
 804b4c2:	00 
      /* no break */
    case 4:
      if (ndigits <= 0)
 804b4c3:	8b 8c 24 c0 00 00 00 	mov    0xc0(%esp),%ecx
 804b4ca:	85 c9                	test   %ecx,%ecx
 804b4cc:	0f 8e 9b 0c 00 00    	jle    804c16d <_dtoa_r+0xf75>
 804b4d2:	8b 9c 24 c0 00 00 00 	mov    0xc0(%esp),%ebx
 804b4d9:	89 5c 24 68          	mov    %ebx,0x68(%esp)
 804b4dd:	89 5c 24 40          	mov    %ebx,0x40(%esp)
      ilim1 = i - 1;
      if (i <= 0)
	i = 1;
    }
  j = sizeof (__ULong);
  for (_REENT_MP_RESULT_K(ptr) = 0; sizeof (_Bigint) - sizeof (__ULong) + j <= i;
 804b4e1:	c7 45 44 00 00 00 00 	movl   $0x0,0x44(%ebp)
 804b4e8:	83 fb 17             	cmp    $0x17,%ebx
 804b4eb:	0f 86 05 10 00 00    	jbe    804c4f6 <_dtoa_r+0x12fe>
 804b4f1:	b9 01 00 00 00       	mov    $0x1,%ecx
 804b4f6:	b8 04 00 00 00       	mov    $0x4,%eax
 804b4fb:	90                   	nop
       j <<= 1)
    _REENT_MP_RESULT_K(ptr)++;
 804b4fc:	89 ca                	mov    %ecx,%edx
      if (i <= 0)
	i = 1;
    }
  j = sizeof (__ULong);
  for (_REENT_MP_RESULT_K(ptr) = 0; sizeof (_Bigint) - sizeof (__ULong) + j <= i;
       j <<= 1)
 804b4fe:	d1 e0                	shl    %eax
 804b500:	8d 49 01             	lea    0x1(%ecx),%ecx
      ilim1 = i - 1;
      if (i <= 0)
	i = 1;
    }
  j = sizeof (__ULong);
  for (_REENT_MP_RESULT_K(ptr) = 0; sizeof (_Bigint) - sizeof (__ULong) + j <= i;
 804b503:	8d 70 14             	lea    0x14(%eax),%esi
 804b506:	39 de                	cmp    %ebx,%esi
 804b508:	76 f2                	jbe    804b4fc <_dtoa_r+0x304>
 804b50a:	89 55 44             	mov    %edx,0x44(%ebp)
       j <<= 1)
    _REENT_MP_RESULT_K(ptr)++;
  _REENT_MP_RESULT(ptr) = Balloc (ptr, _REENT_MP_RESULT_K(ptr));
 804b50d:	89 54 24 04          	mov    %edx,0x4(%esp)
 804b511:	89 2c 24             	mov    %ebp,(%esp)
 804b514:	e8 97 28 00 00       	call   804ddb0 <_Balloc>
 804b519:	89 c6                	mov    %eax,%esi
 804b51b:	89 45 40             	mov    %eax,0x40(%ebp)
  s = s0 = (char *) _REENT_MP_RESULT(ptr);

  if (ilim >= 0 && ilim <= Quick_max && try_quick)
 804b51e:	83 fb 0e             	cmp    $0xe,%ebx
 804b521:	0f 87 9d 02 00 00    	ja     804b7c4 <_dtoa_r+0x5cc>
 804b527:	85 ff                	test   %edi,%edi
 804b529:	0f 84 95 02 00 00    	je     804b7c4 <_dtoa_r+0x5cc>
      k0 = k;
      ilim0 = ilim;
      ieps = 2;			/* conservative */
      if (k > 0)
	{
	  ds = tens[k & 0xf];
 804b52f:	8b 44 24 44          	mov    0x44(%esp),%eax
      i = 0;
      d2.d = d.d;
      k0 = k;
      ilim0 = ilim;
      ieps = 2;			/* conservative */
      if (k > 0)
 804b533:	8b 54 24 44          	mov    0x44(%esp),%edx
 804b537:	85 d2                	test   %edx,%edx
 804b539:	0f 8e f5 0c 00 00    	jle    804c234 <_dtoa_r+0x103c>
	{
	  ds = tens[k & 0xf];
 804b53f:	83 e0 0f             	and    $0xf,%eax
 804b542:	dd 04 c5 20 19 05 08 	fldl   0x8051920(,%eax,8)
	  j = k >> 4;
 804b549:	8b 44 24 44          	mov    0x44(%esp),%eax
 804b54d:	c1 f8 04             	sar    $0x4,%eax
	  if (j & Bletch)
